
kernel.bin:     file format elf32-i386


Disassembly of section .text:

c0100000 <test_backtrace>:
c0100000:	55                   	push   %ebp
c0100001:	89 e5                	mov    %esp,%ebp
c0100003:	5d                   	pop    %ebp
c0100004:	c3                   	ret    

c0100005 <i386_init>:
c0100005:	55                   	push   %ebp
c0100006:	89 e5                	mov    %esp,%ebp
c0100008:	83 ec 08             	sub    $0x8,%esp
c010000b:	e8 22 1f 00 00       	call   c0101f32 <cons_init>
c0100010:	c7 05 04 50 11 c0 00 	movl   $0x300,0xc0115004
c0100017:	03 00 00 
c010001a:	83 ec 0c             	sub    $0xc,%esp
c010001d:	68 40 6c 10 c0       	push   $0xc0106c40
c0100022:	e8 8e 16 00 00       	call   c01016b5 <cprintf>
c0100027:	83 c4 10             	add    $0x10,%esp
c010002a:	c7 05 04 50 11 c0 00 	movl   $0x0,0xc0115004
c0100031:	00 00 00 
c0100034:	83 ec 0c             	sub    $0xc,%esp
c0100037:	6a 00                	push   $0x0
c0100039:	e8 bd 0f 00 00       	call   c0100ffb <monitor>
c010003e:	83 c4 10             	add    $0x10,%esp
c0100041:	eb f1                	jmp    c0100034 <i386_init+0x2f>

c0100043 <_panic>:
c0100043:	55                   	push   %ebp
c0100044:	89 e5                	mov    %esp,%ebp
c0100046:	83 ec 18             	sub    $0x18,%esp
c0100049:	a1 00 87 15 c0       	mov    0xc0158700,%eax
c010004e:	85 c0                	test   %eax,%eax
c0100050:	74 02                	je     c0100054 <_panic+0x11>
c0100052:	eb 10                	jmp    c0100064 <_panic+0x21>
c0100054:	8b 45 10             	mov    0x10(%ebp),%eax
c0100057:	a3 00 87 15 c0       	mov    %eax,0xc0158700
c010005c:	fa                   	cli    
c010005d:	fc                   	cld    
c010005e:	8d 45 14             	lea    0x14(%ebp),%eax
c0100061:	89 45 f4             	mov    %eax,-0xc(%ebp)
c0100064:	83 ec 0c             	sub    $0xc,%esp
c0100067:	6a 00                	push   $0x0
c0100069:	e8 8d 0f 00 00       	call   c0100ffb <monitor>
c010006e:	83 c4 10             	add    $0x10,%esp
c0100071:	eb f1                	jmp    c0100064 <_panic+0x21>

c0100073 <_warn>:
c0100073:	55                   	push   %ebp
c0100074:	89 e5                	mov    %esp,%ebp
c0100076:	83 ec 10             	sub    $0x10,%esp
c0100079:	8d 45 14             	lea    0x14(%ebp),%eax
c010007c:	89 45 fc             	mov    %eax,-0x4(%ebp)
c010007f:	c9                   	leave  
c0100080:	c3                   	ret    

c0100081 <mon_help>:
c0100081:	55                   	push   %ebp
c0100082:	89 e5                	mov    %esp,%ebp
c0100084:	83 ec 18             	sub    $0x18,%esp
c0100087:	c7 45 f4 00 00 00 00 	movl   $0x0,-0xc(%ebp)
c010008e:	eb 3d                	jmp    c01000cd <mon_help+0x4c>
c0100090:	8b 55 f4             	mov    -0xc(%ebp),%edx
c0100093:	89 d0                	mov    %edx,%eax
c0100095:	01 c0                	add    %eax,%eax
c0100097:	01 d0                	add    %edx,%eax
c0100099:	c1 e0 02             	shl    $0x2,%eax
c010009c:	05 00 90 10 c0       	add    $0xc0109000,%eax
c01000a1:	8b 48 04             	mov    0x4(%eax),%ecx
c01000a4:	8b 55 f4             	mov    -0xc(%ebp),%edx
c01000a7:	89 d0                	mov    %edx,%eax
c01000a9:	01 c0                	add    %eax,%eax
c01000ab:	01 d0                	add    %edx,%eax
c01000ad:	c1 e0 02             	shl    $0x2,%eax
c01000b0:	05 00 90 10 c0       	add    $0xc0109000,%eax
c01000b5:	8b 00                	mov    (%eax),%eax
c01000b7:	83 ec 04             	sub    $0x4,%esp
c01000ba:	51                   	push   %ecx
c01000bb:	50                   	push   %eax
c01000bc:	68 0f 6d 10 c0       	push   $0xc0106d0f
c01000c1:	e8 ef 15 00 00       	call   c01016b5 <cprintf>
c01000c6:	83 c4 10             	add    $0x10,%esp
c01000c9:	83 45 f4 01          	addl   $0x1,-0xc(%ebp)
c01000cd:	8b 45 f4             	mov    -0xc(%ebp),%eax
c01000d0:	83 f8 07             	cmp    $0x7,%eax
c01000d3:	76 bb                	jbe    c0100090 <mon_help+0xf>
c01000d5:	b8 00 00 00 00       	mov    $0x0,%eax
c01000da:	c9                   	leave  
c01000db:	c3                   	ret    

c01000dc <mon_kerninfo>:
c01000dc:	55                   	push   %ebp
c01000dd:	89 e5                	mov    %esp,%ebp
c01000df:	83 ec 08             	sub    $0x8,%esp
c01000e2:	83 ec 0c             	sub    $0xc,%esp
c01000e5:	68 16 6d 10 c0       	push   $0xc0106d16
c01000ea:	e8 c6 15 00 00       	call   c01016b5 <cprintf>
c01000ef:	83 c4 10             	add    $0x10,%esp
c01000f2:	b8 00 00 00 00       	mov    $0x0,%eax
c01000f7:	c9                   	leave  
c01000f8:	c3                   	ret    

c01000f9 <mon_r>:
c01000f9:	55                   	push   %ebp
c01000fa:	89 e5                	mov    %esp,%ebp
c01000fc:	83 ec 08             	sub    $0x8,%esp
c01000ff:	e8 2f 2e 00 00       	call   c0102f33 <env_create>
c0100104:	83 ec 0c             	sub    $0xc,%esp
c0100107:	50                   	push   %eax
c0100108:	e8 ed 2e 00 00       	call   c0102ffa <env_run2>
c010010d:	83 c4 10             	add    $0x10,%esp
c0100110:	b8 00 00 00 00       	mov    $0x0,%eax
c0100115:	c9                   	leave  
c0100116:	c3                   	ret    

c0100117 <mon_cd>:
c0100117:	55                   	push   %ebp
c0100118:	89 e5                	mov    %esp,%ebp
c010011a:	83 ec 18             	sub    $0x18,%esp
c010011d:	8b 15 40 52 16 c0    	mov    0xc0165240,%edx
c0100123:	8b 45 0c             	mov    0xc(%ebp),%eax
c0100126:	83 c0 04             	add    $0x4,%eax
c0100129:	8b 00                	mov    (%eax),%eax
c010012b:	83 ec 08             	sub    $0x8,%esp
c010012e:	52                   	push   %edx
c010012f:	50                   	push   %eax
c0100130:	e8 40 5b 00 00       	call   c0105c75 <fs_walk>
c0100135:	83 c4 10             	add    $0x10,%esp
c0100138:	89 45 f4             	mov    %eax,-0xc(%ebp)
c010013b:	b8 00 00 00 00       	mov    $0x0,%eax
c0100140:	c9                   	leave  
c0100141:	c3                   	ret    

c0100142 <touch>:
c0100142:	55                   	push   %ebp
c0100143:	89 e5                	mov    %esp,%ebp
c0100145:	83 ec 18             	sub    $0x18,%esp
c0100148:	c7 45 f4 00 00 00 00 	movl   $0x0,-0xc(%ebp)
c010014f:	eb 41                	jmp    c0100192 <touch+0x50>
c0100151:	a1 40 52 16 c0       	mov    0xc0165240,%eax
c0100156:	8b 55 f4             	mov    -0xc(%ebp),%edx
c0100159:	c1 e2 06             	shl    $0x6,%edx
c010015c:	01 d0                	add    %edx,%eax
c010015e:	83 ec 08             	sub    $0x8,%esp
c0100161:	ff 75 08             	pushl  0x8(%ebp)
c0100164:	50                   	push   %eax
c0100165:	e8 f0 22 00 00       	call   c010245a <strcmp>
c010016a:	83 c4 10             	add    $0x10,%esp
c010016d:	85 c0                	test   %eax,%eax
c010016f:	75 1d                	jne    c010018e <touch+0x4c>
c0100171:	8b 15 40 52 16 c0    	mov    0xc0165240,%edx
c0100177:	a1 48 57 11 c0       	mov    0xc0115748,%eax
c010017c:	89 c1                	mov    %eax,%ecx
c010017e:	8b 45 f4             	mov    -0xc(%ebp),%eax
c0100181:	c1 e0 06             	shl    $0x6,%eax
c0100184:	83 c0 20             	add    $0x20,%eax
c0100187:	01 d0                	add    %edx,%eax
c0100189:	89 48 0c             	mov    %ecx,0xc(%eax)
c010018c:	eb 0a                	jmp    c0100198 <touch+0x56>
c010018e:	83 45 f4 01          	addl   $0x1,-0xc(%ebp)
c0100192:	83 7d f4 07          	cmpl   $0x7,-0xc(%ebp)
c0100196:	7e b9                	jle    c0100151 <touch+0xf>
c0100198:	c9                   	leave  
c0100199:	c3                   	ret    

c010019a <mon_echo>:
c010019a:	55                   	push   %ebp
c010019b:	89 e5                	mov    %esp,%ebp
c010019d:	81 ec 18 02 00 00    	sub    $0x218,%esp
c01001a3:	c7 45 f4 01 00 00 00 	movl   $0x1,-0xc(%ebp)
c01001aa:	eb 50                	jmp    c01001fc <mon_echo+0x62>
c01001ac:	8b 45 f4             	mov    -0xc(%ebp),%eax
c01001af:	8d 14 85 00 00 00 00 	lea    0x0(,%eax,4),%edx
c01001b6:	8b 45 0c             	mov    0xc(%ebp),%eax
c01001b9:	01 d0                	add    %edx,%eax
c01001bb:	8b 00                	mov    (%eax),%eax
c01001bd:	83 ec 08             	sub    $0x8,%esp
c01001c0:	68 20 6d 10 c0       	push   $0xc0106d20
c01001c5:	50                   	push   %eax
c01001c6:	e8 8f 22 00 00       	call   c010245a <strcmp>
c01001cb:	83 c4 10             	add    $0x10,%esp
c01001ce:	85 c0                	test   %eax,%eax
c01001d0:	74 32                	je     c0100204 <mon_echo+0x6a>
c01001d2:	8b 45 f4             	mov    -0xc(%ebp),%eax
c01001d5:	8d 14 85 00 00 00 00 	lea    0x0(,%eax,4),%edx
c01001dc:	8b 45 0c             	mov    0xc(%ebp),%eax
c01001df:	01 d0                	add    %edx,%eax
c01001e1:	8b 00                	mov    (%eax),%eax
c01001e3:	83 ec 08             	sub    $0x8,%esp
c01001e6:	68 22 6d 10 c0       	push   $0xc0106d22
c01001eb:	50                   	push   %eax
c01001ec:	e8 69 22 00 00       	call   c010245a <strcmp>
c01001f1:	83 c4 10             	add    $0x10,%esp
c01001f4:	85 c0                	test   %eax,%eax
c01001f6:	74 0c                	je     c0100204 <mon_echo+0x6a>
c01001f8:	83 45 f4 01          	addl   $0x1,-0xc(%ebp)
c01001fc:	8b 45 f4             	mov    -0xc(%ebp),%eax
c01001ff:	3b 45 08             	cmp    0x8(%ebp),%eax
c0100202:	7c a8                	jl     c01001ac <mon_echo+0x12>
c0100204:	8b 45 f4             	mov    -0xc(%ebp),%eax
c0100207:	3b 45 08             	cmp    0x8(%ebp),%eax
c010020a:	75 4c                	jne    c0100258 <mon_echo+0xbe>
c010020c:	c7 45 f4 01 00 00 00 	movl   $0x1,-0xc(%ebp)
c0100213:	eb 26                	jmp    c010023b <mon_echo+0xa1>
c0100215:	8b 45 f4             	mov    -0xc(%ebp),%eax
c0100218:	8d 14 85 00 00 00 00 	lea    0x0(,%eax,4),%edx
c010021f:	8b 45 0c             	mov    0xc(%ebp),%eax
c0100222:	01 d0                	add    %edx,%eax
c0100224:	8b 00                	mov    (%eax),%eax
c0100226:	83 ec 08             	sub    $0x8,%esp
c0100229:	50                   	push   %eax
c010022a:	68 25 6d 10 c0       	push   $0xc0106d25
c010022f:	e8 81 14 00 00       	call   c01016b5 <cprintf>
c0100234:	83 c4 10             	add    $0x10,%esp
c0100237:	83 45 f4 01          	addl   $0x1,-0xc(%ebp)
c010023b:	8b 45 f4             	mov    -0xc(%ebp),%eax
c010023e:	3b 45 08             	cmp    0x8(%ebp),%eax
c0100241:	7c d2                	jl     c0100215 <mon_echo+0x7b>
c0100243:	83 ec 0c             	sub    $0xc,%esp
c0100246:	68 29 6d 10 c0       	push   $0xc0106d29
c010024b:	e8 65 14 00 00       	call   c01016b5 <cprintf>
c0100250:	83 c4 10             	add    $0x10,%esp
c0100253:	e9 a4 02 00 00       	jmp    c01004fc <mon_echo+0x362>
c0100258:	8b 45 f4             	mov    -0xc(%ebp),%eax
c010025b:	8d 14 85 00 00 00 00 	lea    0x0(,%eax,4),%edx
c0100262:	8b 45 0c             	mov    0xc(%ebp),%eax
c0100265:	01 d0                	add    %edx,%eax
c0100267:	8b 00                	mov    (%eax),%eax
c0100269:	83 ec 08             	sub    $0x8,%esp
c010026c:	68 20 6d 10 c0       	push   $0xc0106d20
c0100271:	50                   	push   %eax
c0100272:	e8 e3 21 00 00       	call   c010245a <strcmp>
c0100277:	83 c4 10             	add    $0x10,%esp
c010027a:	85 c0                	test   %eax,%eax
c010027c:	0f 85 f8 00 00 00    	jne    c010037a <mon_echo+0x1e0>
c0100282:	8b 45 f4             	mov    -0xc(%ebp),%eax
c0100285:	83 c0 01             	add    $0x1,%eax
c0100288:	8d 14 85 00 00 00 00 	lea    0x0(,%eax,4),%edx
c010028f:	8b 45 0c             	mov    0xc(%ebp),%eax
c0100292:	01 d0                	add    %edx,%eax
c0100294:	8b 00                	mov    (%eax),%eax
c0100296:	83 ec 0c             	sub    $0xc,%esp
c0100299:	50                   	push   %eax
c010029a:	e8 a3 fe ff ff       	call   c0100142 <touch>
c010029f:	83 c4 10             	add    $0x10,%esp
c01002a2:	8b 15 40 52 16 c0    	mov    0xc0165240,%edx
c01002a8:	8b 45 f4             	mov    -0xc(%ebp),%eax
c01002ab:	83 c0 01             	add    $0x1,%eax
c01002ae:	8d 0c 85 00 00 00 00 	lea    0x0(,%eax,4),%ecx
c01002b5:	8b 45 0c             	mov    0xc(%ebp),%eax
c01002b8:	01 c8                	add    %ecx,%eax
c01002ba:	8b 00                	mov    (%eax),%eax
c01002bc:	83 ec 08             	sub    $0x8,%esp
c01002bf:	52                   	push   %edx
c01002c0:	50                   	push   %eax
c01002c1:	e8 af 59 00 00       	call   c0105c75 <fs_walk>
c01002c6:	83 c4 10             	add    $0x10,%esp
c01002c9:	89 45 e8             	mov    %eax,-0x18(%ebp)
c01002cc:	83 ec 0c             	sub    $0xc,%esp
c01002cf:	ff 75 e8             	pushl  -0x18(%ebp)
c01002d2:	e8 78 65 00 00       	call   c010684f <fs_rewind>
c01002d7:	83 c4 10             	add    $0x10,%esp
c01002da:	c7 45 f0 01 00 00 00 	movl   $0x1,-0x10(%ebp)
c01002e1:	eb 59                	jmp    c010033c <mon_echo+0x1a2>
c01002e3:	8b 45 f0             	mov    -0x10(%ebp),%eax
c01002e6:	8d 14 85 00 00 00 00 	lea    0x0(,%eax,4),%edx
c01002ed:	8b 45 0c             	mov    0xc(%ebp),%eax
c01002f0:	01 d0                	add    %edx,%eax
c01002f2:	8b 00                	mov    (%eax),%eax
c01002f4:	83 ec 0c             	sub    $0xc,%esp
c01002f7:	50                   	push   %eax
c01002f8:	e8 38 22 00 00       	call   c0102535 <strlen>
c01002fd:	83 c4 10             	add    $0x10,%esp
c0100300:	89 c1                	mov    %eax,%ecx
c0100302:	8b 45 f0             	mov    -0x10(%ebp),%eax
c0100305:	8d 14 85 00 00 00 00 	lea    0x0(,%eax,4),%edx
c010030c:	8b 45 0c             	mov    0xc(%ebp),%eax
c010030f:	01 d0                	add    %edx,%eax
c0100311:	8b 00                	mov    (%eax),%eax
c0100313:	83 ec 04             	sub    $0x4,%esp
c0100316:	51                   	push   %ecx
c0100317:	50                   	push   %eax
c0100318:	ff 75 e8             	pushl  -0x18(%ebp)
c010031b:	e8 c0 5f 00 00       	call   c01062e0 <fs_write>
c0100320:	83 c4 10             	add    $0x10,%esp
c0100323:	83 ec 04             	sub    $0x4,%esp
c0100326:	6a 01                	push   $0x1
c0100328:	68 2b 6d 10 c0       	push   $0xc0106d2b
c010032d:	ff 75 e8             	pushl  -0x18(%ebp)
c0100330:	e8 ab 5f 00 00       	call   c01062e0 <fs_write>
c0100335:	83 c4 10             	add    $0x10,%esp
c0100338:	83 45 f0 01          	addl   $0x1,-0x10(%ebp)
c010033c:	8b 45 f0             	mov    -0x10(%ebp),%eax
c010033f:	3b 45 f4             	cmp    -0xc(%ebp),%eax
c0100342:	7c 9f                	jl     c01002e3 <mon_echo+0x149>
c0100344:	83 ec 04             	sub    $0x4,%esp
c0100347:	6a 01                	push   $0x1
c0100349:	68 2d 6d 10 c0       	push   $0xc0106d2d
c010034e:	ff 75 e8             	pushl  -0x18(%ebp)
c0100351:	e8 8a 5f 00 00       	call   c01062e0 <fs_write>
c0100356:	83 c4 10             	add    $0x10,%esp
c0100359:	83 ec 0c             	sub    $0xc,%esp
c010035c:	ff 75 e8             	pushl  -0x18(%ebp)
c010035f:	e8 5e 63 00 00       	call   c01066c2 <fs_close>
c0100364:	83 c4 10             	add    $0x10,%esp
c0100367:	a1 44 57 11 c0       	mov    0xc0115744,%eax
c010036c:	8b 50 68             	mov    0x68(%eax),%edx
c010036f:	83 ea 01             	sub    $0x1,%edx
c0100372:	89 50 68             	mov    %edx,0x68(%eax)
c0100375:	e9 82 01 00 00       	jmp    c01004fc <mon_echo+0x362>
c010037a:	8b 45 f4             	mov    -0xc(%ebp),%eax
c010037d:	8d 14 85 00 00 00 00 	lea    0x0(,%eax,4),%edx
c0100384:	8b 45 0c             	mov    0xc(%ebp),%eax
c0100387:	01 d0                	add    %edx,%eax
c0100389:	8b 00                	mov    (%eax),%eax
c010038b:	83 ec 08             	sub    $0x8,%esp
c010038e:	68 22 6d 10 c0       	push   $0xc0106d22
c0100393:	50                   	push   %eax
c0100394:	e8 c1 20 00 00       	call   c010245a <strcmp>
c0100399:	83 c4 10             	add    $0x10,%esp
c010039c:	85 c0                	test   %eax,%eax
c010039e:	0f 85 58 01 00 00    	jne    c01004fc <mon_echo+0x362>
c01003a4:	8b 45 f4             	mov    -0xc(%ebp),%eax
c01003a7:	83 c0 01             	add    $0x1,%eax
c01003aa:	8d 14 85 00 00 00 00 	lea    0x0(,%eax,4),%edx
c01003b1:	8b 45 0c             	mov    0xc(%ebp),%eax
c01003b4:	01 d0                	add    %edx,%eax
c01003b6:	8b 00                	mov    (%eax),%eax
c01003b8:	83 ec 0c             	sub    $0xc,%esp
c01003bb:	50                   	push   %eax
c01003bc:	e8 81 fd ff ff       	call   c0100142 <touch>
c01003c1:	83 c4 10             	add    $0x10,%esp
c01003c4:	8b 15 40 52 16 c0    	mov    0xc0165240,%edx
c01003ca:	8b 45 f4             	mov    -0xc(%ebp),%eax
c01003cd:	83 c0 01             	add    $0x1,%eax
c01003d0:	8d 0c 85 00 00 00 00 	lea    0x0(,%eax,4),%ecx
c01003d7:	8b 45 0c             	mov    0xc(%ebp),%eax
c01003da:	01 c8                	add    %ecx,%eax
c01003dc:	8b 00                	mov    (%eax),%eax
c01003de:	83 ec 08             	sub    $0x8,%esp
c01003e1:	52                   	push   %edx
c01003e2:	50                   	push   %eax
c01003e3:	e8 8d 58 00 00       	call   c0105c75 <fs_walk>
c01003e8:	83 c4 10             	add    $0x10,%esp
c01003eb:	89 45 e4             	mov    %eax,-0x1c(%ebp)
c01003ee:	83 ec 0c             	sub    $0xc,%esp
c01003f1:	ff 75 e4             	pushl  -0x1c(%ebp)
c01003f4:	e8 56 64 00 00       	call   c010684f <fs_rewind>
c01003f9:	83 c4 10             	add    $0x10,%esp
c01003fc:	83 ec 04             	sub    $0x4,%esp
c01003ff:	68 f4 01 00 00       	push   $0x1f4
c0100404:	8d 85 f0 fd ff ff    	lea    -0x210(%ebp),%eax
c010040a:	50                   	push   %eax
c010040b:	ff 75 e4             	pushl  -0x1c(%ebp)
c010040e:	e8 27 5b 00 00       	call   c0105f3a <fs_read>
c0100413:	83 c4 10             	add    $0x10,%esp
c0100416:	83 ec 0c             	sub    $0xc,%esp
c0100419:	ff 75 e4             	pushl  -0x1c(%ebp)
c010041c:	e8 2e 64 00 00       	call   c010684f <fs_rewind>
c0100421:	83 c4 10             	add    $0x10,%esp
c0100424:	83 ec 0c             	sub    $0xc,%esp
c0100427:	8d 85 f0 fd ff ff    	lea    -0x210(%ebp),%eax
c010042d:	50                   	push   %eax
c010042e:	e8 02 21 00 00       	call   c0102535 <strlen>
c0100433:	83 c4 10             	add    $0x10,%esp
c0100436:	83 ec 04             	sub    $0x4,%esp
c0100439:	50                   	push   %eax
c010043a:	8d 85 f0 fd ff ff    	lea    -0x210(%ebp),%eax
c0100440:	50                   	push   %eax
c0100441:	ff 75 e4             	pushl  -0x1c(%ebp)
c0100444:	e8 97 5e 00 00       	call   c01062e0 <fs_write>
c0100449:	83 c4 10             	add    $0x10,%esp
c010044c:	83 ec 04             	sub    $0x4,%esp
c010044f:	6a 01                	push   $0x1
c0100451:	68 29 6d 10 c0       	push   $0xc0106d29
c0100456:	ff 75 e4             	pushl  -0x1c(%ebp)
c0100459:	e8 82 5e 00 00       	call   c01062e0 <fs_write>
c010045e:	83 c4 10             	add    $0x10,%esp
c0100461:	c7 45 ec 01 00 00 00 	movl   $0x1,-0x14(%ebp)
c0100468:	eb 59                	jmp    c01004c3 <mon_echo+0x329>
c010046a:	8b 45 ec             	mov    -0x14(%ebp),%eax
c010046d:	8d 14 85 00 00 00 00 	lea    0x0(,%eax,4),%edx
c0100474:	8b 45 0c             	mov    0xc(%ebp),%eax
c0100477:	01 d0                	add    %edx,%eax
c0100479:	8b 00                	mov    (%eax),%eax
c010047b:	83 ec 0c             	sub    $0xc,%esp
c010047e:	50                   	push   %eax
c010047f:	e8 b1 20 00 00       	call   c0102535 <strlen>
c0100484:	83 c4 10             	add    $0x10,%esp
c0100487:	89 c1                	mov    %eax,%ecx
c0100489:	8b 45 ec             	mov    -0x14(%ebp),%eax
c010048c:	8d 14 85 00 00 00 00 	lea    0x0(,%eax,4),%edx
c0100493:	8b 45 0c             	mov    0xc(%ebp),%eax
c0100496:	01 d0                	add    %edx,%eax
c0100498:	8b 00                	mov    (%eax),%eax
c010049a:	83 ec 04             	sub    $0x4,%esp
c010049d:	51                   	push   %ecx
c010049e:	50                   	push   %eax
c010049f:	ff 75 e4             	pushl  -0x1c(%ebp)
c01004a2:	e8 39 5e 00 00       	call   c01062e0 <fs_write>
c01004a7:	83 c4 10             	add    $0x10,%esp
c01004aa:	83 ec 04             	sub    $0x4,%esp
c01004ad:	6a 01                	push   $0x1
c01004af:	68 2b 6d 10 c0       	push   $0xc0106d2b
c01004b4:	ff 75 e4             	pushl  -0x1c(%ebp)
c01004b7:	e8 24 5e 00 00       	call   c01062e0 <fs_write>
c01004bc:	83 c4 10             	add    $0x10,%esp
c01004bf:	83 45 ec 01          	addl   $0x1,-0x14(%ebp)
c01004c3:	8b 45 ec             	mov    -0x14(%ebp),%eax
c01004c6:	3b 45 f4             	cmp    -0xc(%ebp),%eax
c01004c9:	7c 9f                	jl     c010046a <mon_echo+0x2d0>
c01004cb:	83 ec 04             	sub    $0x4,%esp
c01004ce:	6a 01                	push   $0x1
c01004d0:	68 2d 6d 10 c0       	push   $0xc0106d2d
c01004d5:	ff 75 e4             	pushl  -0x1c(%ebp)
c01004d8:	e8 03 5e 00 00       	call   c01062e0 <fs_write>
c01004dd:	83 c4 10             	add    $0x10,%esp
c01004e0:	83 ec 0c             	sub    $0xc,%esp
c01004e3:	ff 75 e4             	pushl  -0x1c(%ebp)
c01004e6:	e8 d7 61 00 00       	call   c01066c2 <fs_close>
c01004eb:	83 c4 10             	add    $0x10,%esp
c01004ee:	a1 44 57 11 c0       	mov    0xc0115744,%eax
c01004f3:	8b 50 68             	mov    0x68(%eax),%edx
c01004f6:	83 ea 01             	sub    $0x1,%edx
c01004f9:	89 50 68             	mov    %edx,0x68(%eax)
c01004fc:	b8 00 00 00 00       	mov    $0x0,%eax
c0100501:	c9                   	leave  
c0100502:	c3                   	ret    

c0100503 <mon_touch>:
c0100503:	55                   	push   %ebp
c0100504:	89 e5                	mov    %esp,%ebp
c0100506:	83 ec 18             	sub    $0x18,%esp
c0100509:	c7 45 f4 00 00 00 00 	movl   $0x0,-0xc(%ebp)
c0100510:	eb 4d                	jmp    c010055f <mon_touch+0x5c>
c0100512:	8b 45 0c             	mov    0xc(%ebp),%eax
c0100515:	83 c0 04             	add    $0x4,%eax
c0100518:	8b 00                	mov    (%eax),%eax
c010051a:	8b 15 40 52 16 c0    	mov    0xc0165240,%edx
c0100520:	8b 4d f4             	mov    -0xc(%ebp),%ecx
c0100523:	c1 e1 06             	shl    $0x6,%ecx
c0100526:	01 ca                	add    %ecx,%edx
c0100528:	83 ec 08             	sub    $0x8,%esp
c010052b:	50                   	push   %eax
c010052c:	52                   	push   %edx
c010052d:	e8 28 1f 00 00       	call   c010245a <strcmp>
c0100532:	83 c4 10             	add    $0x10,%esp
c0100535:	85 c0                	test   %eax,%eax
c0100537:	75 22                	jne    c010055b <mon_touch+0x58>
c0100539:	8b 15 40 52 16 c0    	mov    0xc0165240,%edx
c010053f:	a1 48 57 11 c0       	mov    0xc0115748,%eax
c0100544:	89 c1                	mov    %eax,%ecx
c0100546:	8b 45 f4             	mov    -0xc(%ebp),%eax
c0100549:	c1 e0 06             	shl    $0x6,%eax
c010054c:	83 c0 20             	add    $0x20,%eax
c010054f:	01 d0                	add    %edx,%eax
c0100551:	89 48 0c             	mov    %ecx,0xc(%eax)
c0100554:	b8 00 00 00 00       	mov    $0x0,%eax
c0100559:	eb 1f                	jmp    c010057a <mon_touch+0x77>
c010055b:	83 45 f4 01          	addl   $0x1,-0xc(%ebp)
c010055f:	83 7d f4 07          	cmpl   $0x7,-0xc(%ebp)
c0100563:	7e ad                	jle    c0100512 <mon_touch+0xf>
c0100565:	83 ec 0c             	sub    $0xc,%esp
c0100568:	68 2f 6d 10 c0       	push   $0xc0106d2f
c010056d:	e8 43 11 00 00       	call   c01016b5 <cprintf>
c0100572:	83 c4 10             	add    $0x10,%esp
c0100575:	b8 00 00 00 00       	mov    $0x0,%eax
c010057a:	c9                   	leave  
c010057b:	c3                   	ret    

c010057c <mon_cat>:
c010057c:	55                   	push   %ebp
c010057d:	89 e5                	mov    %esp,%ebp
c010057f:	81 ec 08 04 00 00    	sub    $0x408,%esp
c0100585:	c7 45 f4 00 00 00 00 	movl   $0x0,-0xc(%ebp)
c010058c:	e9 a7 02 00 00       	jmp    c0100838 <mon_cat+0x2bc>
c0100591:	8b 45 0c             	mov    0xc(%ebp),%eax
c0100594:	83 c0 04             	add    $0x4,%eax
c0100597:	8b 00                	mov    (%eax),%eax
c0100599:	8b 15 40 52 16 c0    	mov    0xc0165240,%edx
c010059f:	8b 4d f4             	mov    -0xc(%ebp),%ecx
c01005a2:	c1 e1 06             	shl    $0x6,%ecx
c01005a5:	01 ca                	add    %ecx,%edx
c01005a7:	83 ec 08             	sub    $0x8,%esp
c01005aa:	50                   	push   %eax
c01005ab:	52                   	push   %edx
c01005ac:	e8 a9 1e 00 00       	call   c010245a <strcmp>
c01005b1:	83 c4 10             	add    $0x10,%esp
c01005b4:	85 c0                	test   %eax,%eax
c01005b6:	0f 85 78 02 00 00    	jne    c0100834 <mon_cat+0x2b8>
c01005bc:	8b 15 40 52 16 c0    	mov    0xc0165240,%edx
c01005c2:	8b 45 f4             	mov    -0xc(%ebp),%eax
c01005c5:	c1 e0 06             	shl    $0x6,%eax
c01005c8:	83 c0 30             	add    $0x30,%eax
c01005cb:	01 d0                	add    %edx,%eax
c01005cd:	8b 40 08             	mov    0x8(%eax),%eax
c01005d0:	85 c0                	test   %eax,%eax
c01005d2:	75 23                	jne    c01005f7 <mon_cat+0x7b>
c01005d4:	a1 40 52 16 c0       	mov    0xc0165240,%eax
c01005d9:	8b 55 f4             	mov    -0xc(%ebp),%edx
c01005dc:	c1 e2 06             	shl    $0x6,%edx
c01005df:	01 d0                	add    %edx,%eax
c01005e1:	83 ec 08             	sub    $0x8,%esp
c01005e4:	50                   	push   %eax
c01005e5:	68 3f 6d 10 c0       	push   $0xc0106d3f
c01005ea:	e8 c6 10 00 00       	call   c01016b5 <cprintf>
c01005ef:	83 c4 10             	add    $0x10,%esp
c01005f2:	e9 36 02 00 00       	jmp    c010082d <mon_cat+0x2b1>
c01005f7:	a1 40 52 16 c0       	mov    0xc0165240,%eax
c01005fc:	8b 15 40 52 16 c0    	mov    0xc0165240,%edx
c0100602:	8b 4d f4             	mov    -0xc(%ebp),%ecx
c0100605:	c1 e1 06             	shl    $0x6,%ecx
c0100608:	01 ca                	add    %ecx,%edx
c010060a:	83 ec 08             	sub    $0x8,%esp
c010060d:	50                   	push   %eax
c010060e:	52                   	push   %edx
c010060f:	e8 61 56 00 00       	call   c0105c75 <fs_walk>
c0100614:	83 c4 10             	add    $0x10,%esp
c0100617:	89 45 f0             	mov    %eax,-0x10(%ebp)
c010061a:	83 ec 04             	sub    $0x4,%esp
c010061d:	68 f4 01 00 00       	push   $0x1f4
c0100622:	8d 85 00 fc ff ff    	lea    -0x400(%ebp),%eax
c0100628:	50                   	push   %eax
c0100629:	ff 75 f0             	pushl  -0x10(%ebp)
c010062c:	e8 09 59 00 00       	call   c0105f3a <fs_read>
c0100631:	83 c4 10             	add    $0x10,%esp
c0100634:	83 ec 0c             	sub    $0xc,%esp
c0100637:	ff 75 f0             	pushl  -0x10(%ebp)
c010063a:	e8 83 60 00 00       	call   c01066c2 <fs_close>
c010063f:	83 c4 10             	add    $0x10,%esp
c0100642:	a1 44 57 11 c0       	mov    0xc0115744,%eax
c0100647:	8b 50 68             	mov    0x68(%eax),%edx
c010064a:	83 ea 01             	sub    $0x1,%edx
c010064d:	89 50 68             	mov    %edx,0x68(%eax)
c0100650:	83 7d 08 02          	cmpl   $0x2,0x8(%ebp)
c0100654:	75 1c                	jne    c0100672 <mon_cat+0xf6>
c0100656:	83 ec 08             	sub    $0x8,%esp
c0100659:	8d 85 00 fc ff ff    	lea    -0x400(%ebp),%eax
c010065f:	50                   	push   %eax
c0100660:	68 52 6d 10 c0       	push   $0xc0106d52
c0100665:	e8 4b 10 00 00       	call   c01016b5 <cprintf>
c010066a:	83 c4 10             	add    $0x10,%esp
c010066d:	e9 bb 01 00 00       	jmp    c010082d <mon_cat+0x2b1>
c0100672:	8b 45 0c             	mov    0xc(%ebp),%eax
c0100675:	83 c0 08             	add    $0x8,%eax
c0100678:	8b 00                	mov    (%eax),%eax
c010067a:	83 ec 08             	sub    $0x8,%esp
c010067d:	68 20 6d 10 c0       	push   $0xc0106d20
c0100682:	50                   	push   %eax
c0100683:	e8 d2 1d 00 00       	call   c010245a <strcmp>
c0100688:	83 c4 10             	add    $0x10,%esp
c010068b:	85 c0                	test   %eax,%eax
c010068d:	0f 85 90 00 00 00    	jne    c0100723 <mon_cat+0x1a7>
c0100693:	8b 45 0c             	mov    0xc(%ebp),%eax
c0100696:	83 c0 0c             	add    $0xc,%eax
c0100699:	8b 00                	mov    (%eax),%eax
c010069b:	83 ec 0c             	sub    $0xc,%esp
c010069e:	50                   	push   %eax
c010069f:	e8 9e fa ff ff       	call   c0100142 <touch>
c01006a4:	83 c4 10             	add    $0x10,%esp
c01006a7:	8b 15 40 52 16 c0    	mov    0xc0165240,%edx
c01006ad:	8b 45 0c             	mov    0xc(%ebp),%eax
c01006b0:	83 c0 0c             	add    $0xc,%eax
c01006b3:	8b 00                	mov    (%eax),%eax
c01006b5:	83 ec 08             	sub    $0x8,%esp
c01006b8:	52                   	push   %edx
c01006b9:	50                   	push   %eax
c01006ba:	e8 b6 55 00 00       	call   c0105c75 <fs_walk>
c01006bf:	83 c4 10             	add    $0x10,%esp
c01006c2:	89 45 ec             	mov    %eax,-0x14(%ebp)
c01006c5:	83 ec 0c             	sub    $0xc,%esp
c01006c8:	ff 75 ec             	pushl  -0x14(%ebp)
c01006cb:	e8 7f 61 00 00       	call   c010684f <fs_rewind>
c01006d0:	83 c4 10             	add    $0x10,%esp
c01006d3:	83 ec 0c             	sub    $0xc,%esp
c01006d6:	8d 85 00 fc ff ff    	lea    -0x400(%ebp),%eax
c01006dc:	50                   	push   %eax
c01006dd:	e8 53 1e 00 00       	call   c0102535 <strlen>
c01006e2:	83 c4 10             	add    $0x10,%esp
c01006e5:	83 ec 04             	sub    $0x4,%esp
c01006e8:	50                   	push   %eax
c01006e9:	8d 85 00 fc ff ff    	lea    -0x400(%ebp),%eax
c01006ef:	50                   	push   %eax
c01006f0:	ff 75 ec             	pushl  -0x14(%ebp)
c01006f3:	e8 e8 5b 00 00       	call   c01062e0 <fs_write>
c01006f8:	83 c4 10             	add    $0x10,%esp
c01006fb:	83 ec 04             	sub    $0x4,%esp
c01006fe:	6a 01                	push   $0x1
c0100700:	68 2d 6d 10 c0       	push   $0xc0106d2d
c0100705:	ff 75 ec             	pushl  -0x14(%ebp)
c0100708:	e8 d3 5b 00 00       	call   c01062e0 <fs_write>
c010070d:	83 c4 10             	add    $0x10,%esp
c0100710:	83 ec 0c             	sub    $0xc,%esp
c0100713:	ff 75 ec             	pushl  -0x14(%ebp)
c0100716:	e8 a7 5f 00 00       	call   c01066c2 <fs_close>
c010071b:	83 c4 10             	add    $0x10,%esp
c010071e:	e9 0a 01 00 00       	jmp    c010082d <mon_cat+0x2b1>
c0100723:	8b 45 0c             	mov    0xc(%ebp),%eax
c0100726:	83 c0 08             	add    $0x8,%eax
c0100729:	8b 00                	mov    (%eax),%eax
c010072b:	83 ec 08             	sub    $0x8,%esp
c010072e:	68 22 6d 10 c0       	push   $0xc0106d22
c0100733:	50                   	push   %eax
c0100734:	e8 21 1d 00 00       	call   c010245a <strcmp>
c0100739:	83 c4 10             	add    $0x10,%esp
c010073c:	85 c0                	test   %eax,%eax
c010073e:	0f 85 e9 00 00 00    	jne    c010082d <mon_cat+0x2b1>
c0100744:	8b 45 0c             	mov    0xc(%ebp),%eax
c0100747:	83 c0 0c             	add    $0xc,%eax
c010074a:	8b 00                	mov    (%eax),%eax
c010074c:	83 ec 0c             	sub    $0xc,%esp
c010074f:	50                   	push   %eax
c0100750:	e8 ed f9 ff ff       	call   c0100142 <touch>
c0100755:	83 c4 10             	add    $0x10,%esp
c0100758:	8b 15 40 52 16 c0    	mov    0xc0165240,%edx
c010075e:	8b 45 0c             	mov    0xc(%ebp),%eax
c0100761:	83 c0 0c             	add    $0xc,%eax
c0100764:	8b 00                	mov    (%eax),%eax
c0100766:	83 ec 08             	sub    $0x8,%esp
c0100769:	52                   	push   %edx
c010076a:	50                   	push   %eax
c010076b:	e8 05 55 00 00       	call   c0105c75 <fs_walk>
c0100770:	83 c4 10             	add    $0x10,%esp
c0100773:	89 45 e8             	mov    %eax,-0x18(%ebp)
c0100776:	83 ec 0c             	sub    $0xc,%esp
c0100779:	ff 75 e8             	pushl  -0x18(%ebp)
c010077c:	e8 ce 60 00 00       	call   c010684f <fs_rewind>
c0100781:	83 c4 10             	add    $0x10,%esp
c0100784:	83 ec 04             	sub    $0x4,%esp
c0100787:	68 f4 01 00 00       	push   $0x1f4
c010078c:	8d 85 f4 fd ff ff    	lea    -0x20c(%ebp),%eax
c0100792:	50                   	push   %eax
c0100793:	ff 75 e8             	pushl  -0x18(%ebp)
c0100796:	e8 9f 57 00 00       	call   c0105f3a <fs_read>
c010079b:	83 c4 10             	add    $0x10,%esp
c010079e:	83 ec 0c             	sub    $0xc,%esp
c01007a1:	ff 75 e8             	pushl  -0x18(%ebp)
c01007a4:	e8 a6 60 00 00       	call   c010684f <fs_rewind>
c01007a9:	83 c4 10             	add    $0x10,%esp
c01007ac:	83 ec 0c             	sub    $0xc,%esp
c01007af:	8d 85 f4 fd ff ff    	lea    -0x20c(%ebp),%eax
c01007b5:	50                   	push   %eax
c01007b6:	e8 7a 1d 00 00       	call   c0102535 <strlen>
c01007bb:	83 c4 10             	add    $0x10,%esp
c01007be:	83 ec 04             	sub    $0x4,%esp
c01007c1:	50                   	push   %eax
c01007c2:	8d 85 f4 fd ff ff    	lea    -0x20c(%ebp),%eax
c01007c8:	50                   	push   %eax
c01007c9:	ff 75 e8             	pushl  -0x18(%ebp)
c01007cc:	e8 0f 5b 00 00       	call   c01062e0 <fs_write>
c01007d1:	83 c4 10             	add    $0x10,%esp
c01007d4:	83 ec 0c             	sub    $0xc,%esp
c01007d7:	8d 85 00 fc ff ff    	lea    -0x400(%ebp),%eax
c01007dd:	50                   	push   %eax
c01007de:	e8 52 1d 00 00       	call   c0102535 <strlen>
c01007e3:	83 c4 10             	add    $0x10,%esp
c01007e6:	83 ec 04             	sub    $0x4,%esp
c01007e9:	50                   	push   %eax
c01007ea:	8d 85 00 fc ff ff    	lea    -0x400(%ebp),%eax
c01007f0:	50                   	push   %eax
c01007f1:	ff 75 e8             	pushl  -0x18(%ebp)
c01007f4:	e8 e7 5a 00 00       	call   c01062e0 <fs_write>
c01007f9:	83 c4 10             	add    $0x10,%esp
c01007fc:	83 ec 04             	sub    $0x4,%esp
c01007ff:	6a 01                	push   $0x1
c0100801:	68 2d 6d 10 c0       	push   $0xc0106d2d
c0100806:	ff 75 e8             	pushl  -0x18(%ebp)
c0100809:	e8 d2 5a 00 00       	call   c01062e0 <fs_write>
c010080e:	83 c4 10             	add    $0x10,%esp
c0100811:	83 ec 0c             	sub    $0xc,%esp
c0100814:	ff 75 e8             	pushl  -0x18(%ebp)
c0100817:	e8 a6 5e 00 00       	call   c01066c2 <fs_close>
c010081c:	83 c4 10             	add    $0x10,%esp
c010081f:	a1 44 57 11 c0       	mov    0xc0115744,%eax
c0100824:	8b 50 68             	mov    0x68(%eax),%edx
c0100827:	83 ea 01             	sub    $0x1,%edx
c010082a:	89 50 68             	mov    %edx,0x68(%eax)
c010082d:	b8 00 00 00 00       	mov    $0x0,%eax
c0100832:	eb 23                	jmp    c0100857 <mon_cat+0x2db>
c0100834:	83 45 f4 01          	addl   $0x1,-0xc(%ebp)
c0100838:	83 7d f4 07          	cmpl   $0x7,-0xc(%ebp)
c010083c:	0f 8e 4f fd ff ff    	jle    c0100591 <mon_cat+0x15>
c0100842:	83 ec 0c             	sub    $0xc,%esp
c0100845:	68 2f 6d 10 c0       	push   $0xc0106d2f
c010084a:	e8 66 0e 00 00       	call   c01016b5 <cprintf>
c010084f:	83 c4 10             	add    $0x10,%esp
c0100852:	b8 00 00 00 00       	mov    $0x0,%eax
c0100857:	c9                   	leave  
c0100858:	c3                   	ret    

c0100859 <mon_ls>:
c0100859:	55                   	push   %ebp
c010085a:	89 e5                	mov    %esp,%ebp
c010085c:	56                   	push   %esi
c010085d:	53                   	push   %ebx
c010085e:	83 ec 40             	sub    $0x40,%esp
c0100861:	83 7d 08 01          	cmpl   $0x1,0x8(%ebp)
c0100865:	0f 85 9e 00 00 00    	jne    c0100909 <mon_ls+0xb0>
c010086b:	c7 45 f4 00 00 00 00 	movl   $0x0,-0xc(%ebp)
c0100872:	eb 7a                	jmp    c01008ee <mon_ls+0x95>
c0100874:	8b 15 40 52 16 c0    	mov    0xc0165240,%edx
c010087a:	8b 45 f4             	mov    -0xc(%ebp),%eax
c010087d:	c1 e0 06             	shl    $0x6,%eax
c0100880:	83 c0 30             	add    $0x30,%eax
c0100883:	01 d0                	add    %edx,%eax
c0100885:	8b 40 04             	mov    0x4(%eax),%eax
c0100888:	85 c0                	test   %eax,%eax
c010088a:	74 5e                	je     c01008ea <mon_ls+0x91>
c010088c:	a1 40 52 16 c0       	mov    0xc0165240,%eax
c0100891:	8b 55 f4             	mov    -0xc(%ebp),%edx
c0100894:	c1 e2 06             	shl    $0x6,%edx
c0100897:	01 d0                	add    %edx,%eax
c0100899:	0f b6 00             	movzbl (%eax),%eax
c010089c:	3c 2e                	cmp    $0x2e,%al
c010089e:	74 4a                	je     c01008ea <mon_ls+0x91>
c01008a0:	8b 15 40 52 16 c0    	mov    0xc0165240,%edx
c01008a6:	8b 45 f4             	mov    -0xc(%ebp),%eax
c01008a9:	c1 e0 06             	shl    $0x6,%eax
c01008ac:	83 c0 30             	add    $0x30,%eax
c01008af:	01 d0                	add    %edx,%eax
c01008b1:	8b 40 08             	mov    0x8(%eax),%eax
c01008b4:	85 c0                	test   %eax,%eax
c01008b6:	75 0a                	jne    c01008c2 <mon_ls+0x69>
c01008b8:	c7 05 04 50 11 c0 00 	movl   $0x600,0xc0115004
c01008bf:	06 00 00 
c01008c2:	a1 40 52 16 c0       	mov    0xc0165240,%eax
c01008c7:	8b 55 f4             	mov    -0xc(%ebp),%edx
c01008ca:	c1 e2 06             	shl    $0x6,%edx
c01008cd:	01 d0                	add    %edx,%eax
c01008cf:	83 ec 08             	sub    $0x8,%esp
c01008d2:	50                   	push   %eax
c01008d3:	68 55 6d 10 c0       	push   $0xc0106d55
c01008d8:	e8 d8 0d 00 00       	call   c01016b5 <cprintf>
c01008dd:	83 c4 10             	add    $0x10,%esp
c01008e0:	c7 05 04 50 11 c0 00 	movl   $0x0,0xc0115004
c01008e7:	00 00 00 
c01008ea:	83 45 f4 01          	addl   $0x1,-0xc(%ebp)
c01008ee:	83 7d f4 07          	cmpl   $0x7,-0xc(%ebp)
c01008f2:	7e 80                	jle    c0100874 <mon_ls+0x1b>
c01008f4:	83 ec 0c             	sub    $0xc,%esp
c01008f7:	68 29 6d 10 c0       	push   $0xc0106d29
c01008fc:	e8 b4 0d 00 00       	call   c01016b5 <cprintf>
c0100901:	83 c4 10             	add    $0x10,%esp
c0100904:	e9 0b 05 00 00       	jmp    c0100e14 <mon_ls+0x5bb>
c0100909:	83 7d 08 02          	cmpl   $0x2,0x8(%ebp)
c010090d:	0f 85 97 03 00 00    	jne    c0100caa <mon_ls+0x451>
c0100913:	8b 45 0c             	mov    0xc(%ebp),%eax
c0100916:	83 c0 04             	add    $0x4,%eax
c0100919:	8b 00                	mov    (%eax),%eax
c010091b:	83 ec 08             	sub    $0x8,%esp
c010091e:	68 59 6d 10 c0       	push   $0xc0106d59
c0100923:	50                   	push   %eax
c0100924:	e8 31 1b 00 00       	call   c010245a <strcmp>
c0100929:	83 c4 10             	add    $0x10,%esp
c010092c:	85 c0                	test   %eax,%eax
c010092e:	0f 85 8a 00 00 00    	jne    c01009be <mon_ls+0x165>
c0100934:	c7 45 f0 00 00 00 00 	movl   $0x0,-0x10(%ebp)
c010093b:	eb 66                	jmp    c01009a3 <mon_ls+0x14a>
c010093d:	8b 15 40 52 16 c0    	mov    0xc0165240,%edx
c0100943:	8b 45 f0             	mov    -0x10(%ebp),%eax
c0100946:	c1 e0 06             	shl    $0x6,%eax
c0100949:	83 c0 30             	add    $0x30,%eax
c010094c:	01 d0                	add    %edx,%eax
c010094e:	8b 40 04             	mov    0x4(%eax),%eax
c0100951:	85 c0                	test   %eax,%eax
c0100953:	74 4a                	je     c010099f <mon_ls+0x146>
c0100955:	8b 15 40 52 16 c0    	mov    0xc0165240,%edx
c010095b:	8b 45 f0             	mov    -0x10(%ebp),%eax
c010095e:	c1 e0 06             	shl    $0x6,%eax
c0100961:	83 c0 30             	add    $0x30,%eax
c0100964:	01 d0                	add    %edx,%eax
c0100966:	8b 40 08             	mov    0x8(%eax),%eax
c0100969:	85 c0                	test   %eax,%eax
c010096b:	75 0a                	jne    c0100977 <mon_ls+0x11e>
c010096d:	c7 05 04 50 11 c0 00 	movl   $0x600,0xc0115004
c0100974:	06 00 00 
c0100977:	a1 40 52 16 c0       	mov    0xc0165240,%eax
c010097c:	8b 55 f0             	mov    -0x10(%ebp),%edx
c010097f:	c1 e2 06             	shl    $0x6,%edx
c0100982:	01 d0                	add    %edx,%eax
c0100984:	83 ec 08             	sub    $0x8,%esp
c0100987:	50                   	push   %eax
c0100988:	68 55 6d 10 c0       	push   $0xc0106d55
c010098d:	e8 23 0d 00 00       	call   c01016b5 <cprintf>
c0100992:	83 c4 10             	add    $0x10,%esp
c0100995:	c7 05 04 50 11 c0 00 	movl   $0x0,0xc0115004
c010099c:	00 00 00 
c010099f:	83 45 f0 01          	addl   $0x1,-0x10(%ebp)
c01009a3:	83 7d f0 07          	cmpl   $0x7,-0x10(%ebp)
c01009a7:	7e 94                	jle    c010093d <mon_ls+0xe4>
c01009a9:	83 ec 0c             	sub    $0xc,%esp
c01009ac:	68 29 6d 10 c0       	push   $0xc0106d29
c01009b1:	e8 ff 0c 00 00       	call   c01016b5 <cprintf>
c01009b6:	83 c4 10             	add    $0x10,%esp
c01009b9:	e9 56 04 00 00       	jmp    c0100e14 <mon_ls+0x5bb>
c01009be:	8b 45 0c             	mov    0xc(%ebp),%eax
c01009c1:	83 c0 04             	add    $0x4,%eax
c01009c4:	8b 00                	mov    (%eax),%eax
c01009c6:	83 ec 08             	sub    $0x8,%esp
c01009c9:	68 5c 6d 10 c0       	push   $0xc0106d5c
c01009ce:	50                   	push   %eax
c01009cf:	e8 86 1a 00 00       	call   c010245a <strcmp>
c01009d4:	83 c4 10             	add    $0x10,%esp
c01009d7:	85 c0                	test   %eax,%eax
c01009d9:	75 75                	jne    c0100a50 <mon_ls+0x1f7>
c01009db:	c7 45 ec 00 00 00 00 	movl   $0x0,-0x14(%ebp)
c01009e2:	eb 61                	jmp    c0100a45 <mon_ls+0x1ec>
c01009e4:	8b 15 40 52 16 c0    	mov    0xc0165240,%edx
c01009ea:	8b 45 ec             	mov    -0x14(%ebp),%eax
c01009ed:	c1 e0 06             	shl    $0x6,%eax
c01009f0:	83 c0 30             	add    $0x30,%eax
c01009f3:	01 d0                	add    %edx,%eax
c01009f5:	8b 40 04             	mov    0x4(%eax),%eax
c01009f8:	85 c0                	test   %eax,%eax
c01009fa:	74 45                	je     c0100a41 <mon_ls+0x1e8>
c01009fc:	8b 15 40 52 16 c0    	mov    0xc0165240,%edx
c0100a02:	8b 45 ec             	mov    -0x14(%ebp),%eax
c0100a05:	c1 e0 06             	shl    $0x6,%eax
c0100a08:	83 c0 20             	add    $0x20,%eax
c0100a0b:	01 d0                	add    %edx,%eax
c0100a0d:	8b 50 0c             	mov    0xc(%eax),%edx
c0100a10:	8b 0d 40 52 16 c0    	mov    0xc0165240,%ecx
c0100a16:	8b 45 ec             	mov    -0x14(%ebp),%eax
c0100a19:	c1 e0 06             	shl    $0x6,%eax
c0100a1c:	83 c0 30             	add    $0x30,%eax
c0100a1f:	01 c8                	add    %ecx,%eax
c0100a21:	8b 00                	mov    (%eax),%eax
c0100a23:	8b 0d 40 52 16 c0    	mov    0xc0165240,%ecx
c0100a29:	8b 5d ec             	mov    -0x14(%ebp),%ebx
c0100a2c:	c1 e3 06             	shl    $0x6,%ebx
c0100a2f:	01 d9                	add    %ebx,%ecx
c0100a31:	52                   	push   %edx
c0100a32:	50                   	push   %eax
c0100a33:	51                   	push   %ecx
c0100a34:	68 5f 6d 10 c0       	push   $0xc0106d5f
c0100a39:	e8 77 0c 00 00       	call   c01016b5 <cprintf>
c0100a3e:	83 c4 10             	add    $0x10,%esp
c0100a41:	83 45 ec 01          	addl   $0x1,-0x14(%ebp)
c0100a45:	83 7d ec 07          	cmpl   $0x7,-0x14(%ebp)
c0100a49:	7e 99                	jle    c01009e4 <mon_ls+0x18b>
c0100a4b:	e9 c4 03 00 00       	jmp    c0100e14 <mon_ls+0x5bb>
c0100a50:	8b 45 0c             	mov    0xc(%ebp),%eax
c0100a53:	83 c0 04             	add    $0x4,%eax
c0100a56:	8b 00                	mov    (%eax),%eax
c0100a58:	83 ec 08             	sub    $0x8,%esp
c0100a5b:	68 78 6d 10 c0       	push   $0xc0106d78
c0100a60:	50                   	push   %eax
c0100a61:	e8 f4 19 00 00       	call   c010245a <strcmp>
c0100a66:	83 c4 10             	add    $0x10,%esp
c0100a69:	85 c0                	test   %eax,%eax
c0100a6b:	0f 85 b4 00 00 00    	jne    c0100b25 <mon_ls+0x2cc>
c0100a71:	c7 45 e8 00 00 00 00 	movl   $0x0,-0x18(%ebp)
c0100a78:	e9 99 00 00 00       	jmp    c0100b16 <mon_ls+0x2bd>
c0100a7d:	8b 15 40 52 16 c0    	mov    0xc0165240,%edx
c0100a83:	8b 45 e8             	mov    -0x18(%ebp),%eax
c0100a86:	c1 e0 06             	shl    $0x6,%eax
c0100a89:	83 c0 30             	add    $0x30,%eax
c0100a8c:	01 d0                	add    %edx,%eax
c0100a8e:	8b 40 04             	mov    0x4(%eax),%eax
c0100a91:	85 c0                	test   %eax,%eax
c0100a93:	74 7d                	je     c0100b12 <mon_ls+0x2b9>
c0100a95:	a1 40 52 16 c0       	mov    0xc0165240,%eax
c0100a9a:	8b 55 e8             	mov    -0x18(%ebp),%edx
c0100a9d:	c1 e2 06             	shl    $0x6,%edx
c0100aa0:	01 d0                	add    %edx,%eax
c0100aa2:	0f b6 00             	movzbl (%eax),%eax
c0100aa5:	3c 2e                	cmp    $0x2e,%al
c0100aa7:	74 69                	je     c0100b12 <mon_ls+0x2b9>
c0100aa9:	8b 15 40 52 16 c0    	mov    0xc0165240,%edx
c0100aaf:	8b 45 e8             	mov    -0x18(%ebp),%eax
c0100ab2:	c1 e0 06             	shl    $0x6,%eax
c0100ab5:	83 c0 30             	add    $0x30,%eax
c0100ab8:	01 d0                	add    %edx,%eax
c0100aba:	8b 00                	mov    (%eax),%eax
c0100abc:	c1 e8 17             	shr    $0x17,%eax
c0100abf:	89 c3                	mov    %eax,%ebx
c0100ac1:	8b 15 40 52 16 c0    	mov    0xc0165240,%edx
c0100ac7:	8b 45 e8             	mov    -0x18(%ebp),%eax
c0100aca:	c1 e0 06             	shl    $0x6,%eax
c0100acd:	83 c0 30             	add    $0x30,%eax
c0100ad0:	01 d0                	add    %edx,%eax
c0100ad2:	8b 00                	mov    (%eax),%eax
c0100ad4:	c1 e8 0d             	shr    $0xd,%eax
c0100ad7:	89 c1                	mov    %eax,%ecx
c0100ad9:	8b 15 40 52 16 c0    	mov    0xc0165240,%edx
c0100adf:	8b 45 e8             	mov    -0x18(%ebp),%eax
c0100ae2:	c1 e0 06             	shl    $0x6,%eax
c0100ae5:	83 c0 30             	add    $0x30,%eax
c0100ae8:	01 d0                	add    %edx,%eax
c0100aea:	8b 00                	mov    (%eax),%eax
c0100aec:	c1 e8 03             	shr    $0x3,%eax
c0100aef:	89 c2                	mov    %eax,%edx
c0100af1:	a1 40 52 16 c0       	mov    0xc0165240,%eax
c0100af6:	8b 75 e8             	mov    -0x18(%ebp),%esi
c0100af9:	c1 e6 06             	shl    $0x6,%esi
c0100afc:	01 f0                	add    %esi,%eax
c0100afe:	83 ec 0c             	sub    $0xc,%esp
c0100b01:	53                   	push   %ebx
c0100b02:	51                   	push   %ecx
c0100b03:	52                   	push   %edx
c0100b04:	50                   	push   %eax
c0100b05:	68 7b 6d 10 c0       	push   $0xc0106d7b
c0100b0a:	e8 a6 0b 00 00       	call   c01016b5 <cprintf>
c0100b0f:	83 c4 20             	add    $0x20,%esp
c0100b12:	83 45 e8 01          	addl   $0x1,-0x18(%ebp)
c0100b16:	83 7d e8 07          	cmpl   $0x7,-0x18(%ebp)
c0100b1a:	0f 8e 5d ff ff ff    	jle    c0100a7d <mon_ls+0x224>
c0100b20:	e9 ef 02 00 00       	jmp    c0100e14 <mon_ls+0x5bb>
c0100b25:	8b 45 0c             	mov    0xc(%ebp),%eax
c0100b28:	83 c0 04             	add    $0x4,%eax
c0100b2b:	8b 00                	mov    (%eax),%eax
c0100b2d:	83 ec 08             	sub    $0x8,%esp
c0100b30:	68 97 6d 10 c0       	push   $0xc0106d97
c0100b35:	50                   	push   %eax
c0100b36:	e8 1f 19 00 00       	call   c010245a <strcmp>
c0100b3b:	83 c4 10             	add    $0x10,%esp
c0100b3e:	85 c0                	test   %eax,%eax
c0100b40:	0f 85 ce 02 00 00    	jne    c0100e14 <mon_ls+0x5bb>
c0100b46:	c7 45 dc 00 00 00 00 	movl   $0x0,-0x24(%ebp)
c0100b4d:	c7 45 e4 00 00 00 00 	movl   $0x0,-0x1c(%ebp)
c0100b54:	eb 0f                	jmp    c0100b65 <mon_ls+0x30c>
c0100b56:	8d 55 c4             	lea    -0x3c(%ebp),%edx
c0100b59:	8b 45 e4             	mov    -0x1c(%ebp),%eax
c0100b5c:	01 d0                	add    %edx,%eax
c0100b5e:	c6 00 00             	movb   $0x0,(%eax)
c0100b61:	83 45 e4 01          	addl   $0x1,-0x1c(%ebp)
c0100b65:	83 7d e4 07          	cmpl   $0x7,-0x1c(%ebp)
c0100b69:	7e eb                	jle    c0100b56 <mon_ls+0x2fd>
c0100b6b:	c7 45 e4 00 00 00 00 	movl   $0x0,-0x1c(%ebp)
c0100b72:	e9 14 01 00 00       	jmp    c0100c8b <mon_ls+0x432>
c0100b77:	c7 45 d8 40 42 0f 00 	movl   $0xf4240,-0x28(%ebp)
c0100b7e:	c6 45 d7 00          	movb   $0x0,-0x29(%ebp)
c0100b82:	c7 45 e0 00 00 00 00 	movl   $0x0,-0x20(%ebp)
c0100b89:	e9 90 00 00 00       	jmp    c0100c1e <mon_ls+0x3c5>
c0100b8e:	8b 15 40 52 16 c0    	mov    0xc0165240,%edx
c0100b94:	8b 45 e0             	mov    -0x20(%ebp),%eax
c0100b97:	c1 e0 06             	shl    $0x6,%eax
c0100b9a:	83 c0 30             	add    $0x30,%eax
c0100b9d:	01 d0                	add    %edx,%eax
c0100b9f:	8b 40 04             	mov    0x4(%eax),%eax
c0100ba2:	85 c0                	test   %eax,%eax
c0100ba4:	74 74                	je     c0100c1a <mon_ls+0x3c1>
c0100ba6:	a1 40 52 16 c0       	mov    0xc0165240,%eax
c0100bab:	8b 55 e0             	mov    -0x20(%ebp),%edx
c0100bae:	c1 e2 06             	shl    $0x6,%edx
c0100bb1:	01 d0                	add    %edx,%eax
c0100bb3:	0f b6 00             	movzbl (%eax),%eax
c0100bb6:	3c 2e                	cmp    $0x2e,%al
c0100bb8:	74 60                	je     c0100c1a <mon_ls+0x3c1>
c0100bba:	8d 55 c4             	lea    -0x3c(%ebp),%edx
c0100bbd:	8b 45 e0             	mov    -0x20(%ebp),%eax
c0100bc0:	01 d0                	add    %edx,%eax
c0100bc2:	0f b6 00             	movzbl (%eax),%eax
c0100bc5:	83 f0 01             	xor    $0x1,%eax
c0100bc8:	84 c0                	test   %al,%al
c0100bca:	74 4e                	je     c0100c1a <mon_ls+0x3c1>
c0100bcc:	c6 45 d7 01          	movb   $0x1,-0x29(%ebp)
c0100bd0:	8b 15 40 52 16 c0    	mov    0xc0165240,%edx
c0100bd6:	8b 45 e0             	mov    -0x20(%ebp),%eax
c0100bd9:	c1 e0 06             	shl    $0x6,%eax
c0100bdc:	83 c0 20             	add    $0x20,%eax
c0100bdf:	01 d0                	add    %edx,%eax
c0100be1:	8b 50 0c             	mov    0xc(%eax),%edx
c0100be4:	8b 45 d8             	mov    -0x28(%ebp),%eax
c0100be7:	39 c2                	cmp    %eax,%edx
c0100be9:	73 2f                	jae    c0100c1a <mon_ls+0x3c1>
c0100beb:	8d 55 c4             	lea    -0x3c(%ebp),%edx
c0100bee:	8b 45 e0             	mov    -0x20(%ebp),%eax
c0100bf1:	01 d0                	add    %edx,%eax
c0100bf3:	0f b6 00             	movzbl (%eax),%eax
c0100bf6:	83 f0 01             	xor    $0x1,%eax
c0100bf9:	84 c0                	test   %al,%al
c0100bfb:	74 1d                	je     c0100c1a <mon_ls+0x3c1>
c0100bfd:	8b 15 40 52 16 c0    	mov    0xc0165240,%edx
c0100c03:	8b 45 e0             	mov    -0x20(%ebp),%eax
c0100c06:	c1 e0 06             	shl    $0x6,%eax
c0100c09:	83 c0 20             	add    $0x20,%eax
c0100c0c:	01 d0                	add    %edx,%eax
c0100c0e:	8b 40 0c             	mov    0xc(%eax),%eax
c0100c11:	89 45 d8             	mov    %eax,-0x28(%ebp)
c0100c14:	8b 45 e0             	mov    -0x20(%ebp),%eax
c0100c17:	89 45 dc             	mov    %eax,-0x24(%ebp)
c0100c1a:	83 45 e0 01          	addl   $0x1,-0x20(%ebp)
c0100c1e:	83 7d e0 07          	cmpl   $0x7,-0x20(%ebp)
c0100c22:	0f 8e 66 ff ff ff    	jle    c0100b8e <mon_ls+0x335>
c0100c28:	80 7d d7 00          	cmpb   $0x0,-0x29(%ebp)
c0100c2c:	74 57                	je     c0100c85 <mon_ls+0x42c>
c0100c2e:	8d 55 c4             	lea    -0x3c(%ebp),%edx
c0100c31:	8b 45 dc             	mov    -0x24(%ebp),%eax
c0100c34:	01 d0                	add    %edx,%eax
c0100c36:	c6 00 01             	movb   $0x1,(%eax)
c0100c39:	8b 15 40 52 16 c0    	mov    0xc0165240,%edx
c0100c3f:	8b 45 dc             	mov    -0x24(%ebp),%eax
c0100c42:	c1 e0 06             	shl    $0x6,%eax
c0100c45:	83 c0 30             	add    $0x30,%eax
c0100c48:	01 d0                	add    %edx,%eax
c0100c4a:	8b 40 08             	mov    0x8(%eax),%eax
c0100c4d:	85 c0                	test   %eax,%eax
c0100c4f:	75 0a                	jne    c0100c5b <mon_ls+0x402>
c0100c51:	c7 05 04 50 11 c0 00 	movl   $0x600,0xc0115004
c0100c58:	06 00 00 
c0100c5b:	a1 40 52 16 c0       	mov    0xc0165240,%eax
c0100c60:	8b 55 dc             	mov    -0x24(%ebp),%edx
c0100c63:	c1 e2 06             	shl    $0x6,%edx
c0100c66:	01 d0                	add    %edx,%eax
c0100c68:	83 ec 08             	sub    $0x8,%esp
c0100c6b:	50                   	push   %eax
c0100c6c:	68 55 6d 10 c0       	push   $0xc0106d55
c0100c71:	e8 3f 0a 00 00       	call   c01016b5 <cprintf>
c0100c76:	83 c4 10             	add    $0x10,%esp
c0100c79:	c7 05 04 50 11 c0 00 	movl   $0x0,0xc0115004
c0100c80:	00 00 00 
c0100c83:	eb 02                	jmp    c0100c87 <mon_ls+0x42e>
c0100c85:	eb 0e                	jmp    c0100c95 <mon_ls+0x43c>
c0100c87:	83 45 e4 01          	addl   $0x1,-0x1c(%ebp)
c0100c8b:	83 7d e4 07          	cmpl   $0x7,-0x1c(%ebp)
c0100c8f:	0f 8e e2 fe ff ff    	jle    c0100b77 <mon_ls+0x31e>
c0100c95:	83 ec 0c             	sub    $0xc,%esp
c0100c98:	68 29 6d 10 c0       	push   $0xc0106d29
c0100c9d:	e8 13 0a 00 00       	call   c01016b5 <cprintf>
c0100ca2:	83 c4 10             	add    $0x10,%esp
c0100ca5:	e9 6a 01 00 00       	jmp    c0100e14 <mon_ls+0x5bb>
c0100caa:	83 7d 08 03          	cmpl   $0x3,0x8(%ebp)
c0100cae:	0f 85 50 01 00 00    	jne    c0100e04 <mon_ls+0x5ab>
c0100cb4:	8b 45 0c             	mov    0xc(%ebp),%eax
c0100cb7:	83 c0 04             	add    $0x4,%eax
c0100cba:	8b 00                	mov    (%eax),%eax
c0100cbc:	0f b6 00             	movzbl (%eax),%eax
c0100cbf:	3c 2d                	cmp    $0x2d,%al
c0100cc1:	0f 85 85 00 00 00    	jne    c0100d4c <mon_ls+0x4f3>
c0100cc7:	8b 45 0c             	mov    0xc(%ebp),%eax
c0100cca:	83 c0 08             	add    $0x8,%eax
c0100ccd:	8b 00                	mov    (%eax),%eax
c0100ccf:	0f b6 00             	movzbl (%eax),%eax
c0100cd2:	3c 2d                	cmp    $0x2d,%al
c0100cd4:	75 76                	jne    c0100d4c <mon_ls+0x4f3>
c0100cd6:	c7 45 d0 00 00 00 00 	movl   $0x0,-0x30(%ebp)
c0100cdd:	eb 61                	jmp    c0100d40 <mon_ls+0x4e7>
c0100cdf:	8b 15 40 52 16 c0    	mov    0xc0165240,%edx
c0100ce5:	8b 45 d0             	mov    -0x30(%ebp),%eax
c0100ce8:	c1 e0 06             	shl    $0x6,%eax
c0100ceb:	83 c0 30             	add    $0x30,%eax
c0100cee:	01 d0                	add    %edx,%eax
c0100cf0:	8b 40 04             	mov    0x4(%eax),%eax
c0100cf3:	85 c0                	test   %eax,%eax
c0100cf5:	74 45                	je     c0100d3c <mon_ls+0x4e3>
c0100cf7:	8b 15 40 52 16 c0    	mov    0xc0165240,%edx
c0100cfd:	8b 45 d0             	mov    -0x30(%ebp),%eax
c0100d00:	c1 e0 06             	shl    $0x6,%eax
c0100d03:	83 c0 20             	add    $0x20,%eax
c0100d06:	01 d0                	add    %edx,%eax
c0100d08:	8b 50 0c             	mov    0xc(%eax),%edx
c0100d0b:	8b 0d 40 52 16 c0    	mov    0xc0165240,%ecx
c0100d11:	8b 45 d0             	mov    -0x30(%ebp),%eax
c0100d14:	c1 e0 06             	shl    $0x6,%eax
c0100d17:	83 c0 30             	add    $0x30,%eax
c0100d1a:	01 c8                	add    %ecx,%eax
c0100d1c:	8b 00                	mov    (%eax),%eax
c0100d1e:	8b 0d 40 52 16 c0    	mov    0xc0165240,%ecx
c0100d24:	8b 5d d0             	mov    -0x30(%ebp),%ebx
c0100d27:	c1 e3 06             	shl    $0x6,%ebx
c0100d2a:	01 d9                	add    %ebx,%ecx
c0100d2c:	52                   	push   %edx
c0100d2d:	50                   	push   %eax
c0100d2e:	51                   	push   %ecx
c0100d2f:	68 5f 6d 10 c0       	push   $0xc0106d5f
c0100d34:	e8 7c 09 00 00       	call   c01016b5 <cprintf>
c0100d39:	83 c4 10             	add    $0x10,%esp
c0100d3c:	83 45 d0 01          	addl   $0x1,-0x30(%ebp)
c0100d40:	83 7d d0 07          	cmpl   $0x7,-0x30(%ebp)
c0100d44:	7e 99                	jle    c0100cdf <mon_ls+0x486>
c0100d46:	90                   	nop
c0100d47:	e9 c8 00 00 00       	jmp    c0100e14 <mon_ls+0x5bb>
c0100d4c:	8b 45 0c             	mov    0xc(%ebp),%eax
c0100d4f:	83 c0 04             	add    $0x4,%eax
c0100d52:	8b 00                	mov    (%eax),%eax
c0100d54:	83 ec 08             	sub    $0x8,%esp
c0100d57:	68 5c 6d 10 c0       	push   $0xc0106d5c
c0100d5c:	50                   	push   %eax
c0100d5d:	e8 f8 16 00 00       	call   c010245a <strcmp>
c0100d62:	83 c4 10             	add    $0x10,%esp
c0100d65:	85 c0                	test   %eax,%eax
c0100d67:	0f 85 a7 00 00 00    	jne    c0100e14 <mon_ls+0x5bb>
c0100d6d:	c7 45 cc 00 00 00 00 	movl   $0x0,-0x34(%ebp)
c0100d74:	eb 76                	jmp    c0100dec <mon_ls+0x593>
c0100d76:	a1 40 52 16 c0       	mov    0xc0165240,%eax
c0100d7b:	8b 55 cc             	mov    -0x34(%ebp),%edx
c0100d7e:	c1 e2 06             	shl    $0x6,%edx
c0100d81:	01 c2                	add    %eax,%edx
c0100d83:	8b 45 0c             	mov    0xc(%ebp),%eax
c0100d86:	83 c0 08             	add    $0x8,%eax
c0100d89:	8b 00                	mov    (%eax),%eax
c0100d8b:	83 ec 08             	sub    $0x8,%esp
c0100d8e:	52                   	push   %edx
c0100d8f:	50                   	push   %eax
c0100d90:	e8 c5 16 00 00       	call   c010245a <strcmp>
c0100d95:	83 c4 10             	add    $0x10,%esp
c0100d98:	85 c0                	test   %eax,%eax
c0100d9a:	75 4c                	jne    c0100de8 <mon_ls+0x58f>
c0100d9c:	8b 15 40 52 16 c0    	mov    0xc0165240,%edx
c0100da2:	8b 45 cc             	mov    -0x34(%ebp),%eax
c0100da5:	c1 e0 06             	shl    $0x6,%eax
c0100da8:	83 c0 20             	add    $0x20,%eax
c0100dab:	01 d0                	add    %edx,%eax
c0100dad:	8b 50 0c             	mov    0xc(%eax),%edx
c0100db0:	8b 0d 40 52 16 c0    	mov    0xc0165240,%ecx
c0100db6:	8b 45 cc             	mov    -0x34(%ebp),%eax
c0100db9:	c1 e0 06             	shl    $0x6,%eax
c0100dbc:	83 c0 30             	add    $0x30,%eax
c0100dbf:	01 c8                	add    %ecx,%eax
c0100dc1:	8b 00                	mov    (%eax),%eax
c0100dc3:	8b 0d 40 52 16 c0    	mov    0xc0165240,%ecx
c0100dc9:	8b 5d cc             	mov    -0x34(%ebp),%ebx
c0100dcc:	c1 e3 06             	shl    $0x6,%ebx
c0100dcf:	01 d9                	add    %ebx,%ecx
c0100dd1:	52                   	push   %edx
c0100dd2:	50                   	push   %eax
c0100dd3:	51                   	push   %ecx
c0100dd4:	68 5f 6d 10 c0       	push   $0xc0106d5f
c0100dd9:	e8 d7 08 00 00       	call   c01016b5 <cprintf>
c0100dde:	83 c4 10             	add    $0x10,%esp
c0100de1:	b8 00 00 00 00       	mov    $0x0,%eax
c0100de6:	eb 31                	jmp    c0100e19 <mon_ls+0x5c0>
c0100de8:	83 45 cc 01          	addl   $0x1,-0x34(%ebp)
c0100dec:	83 7d cc 07          	cmpl   $0x7,-0x34(%ebp)
c0100df0:	7e 84                	jle    c0100d76 <mon_ls+0x51d>
c0100df2:	83 ec 0c             	sub    $0xc,%esp
c0100df5:	68 9a 6d 10 c0       	push   $0xc0106d9a
c0100dfa:	e8 b6 08 00 00       	call   c01016b5 <cprintf>
c0100dff:	83 c4 10             	add    $0x10,%esp
c0100e02:	eb 10                	jmp    c0100e14 <mon_ls+0x5bb>
c0100e04:	83 ec 0c             	sub    $0xc,%esp
c0100e07:	68 a9 6d 10 c0       	push   $0xc0106da9
c0100e0c:	e8 a4 08 00 00       	call   c01016b5 <cprintf>
c0100e11:	83 c4 10             	add    $0x10,%esp
c0100e14:	b8 00 00 00 00       	mov    $0x0,%eax
c0100e19:	8d 65 f8             	lea    -0x8(%ebp),%esp
c0100e1c:	5b                   	pop    %ebx
c0100e1d:	5e                   	pop    %esi
c0100e1e:	5d                   	pop    %ebp
c0100e1f:	c3                   	ret    

c0100e20 <mon_backtrace>:
c0100e20:	55                   	push   %ebp
c0100e21:	89 e5                	mov    %esp,%ebp
c0100e23:	b8 00 00 00 00       	mov    $0x0,%eax
c0100e28:	5d                   	pop    %ebp
c0100e29:	c3                   	ret    

c0100e2a <inc>:
c0100e2a:	55                   	push   %ebp
c0100e2b:	89 e5                	mov    %esp,%ebp
c0100e2d:	a1 48 57 11 c0       	mov    0xc0115748,%eax
c0100e32:	83 c0 7b             	add    $0x7b,%eax
c0100e35:	69 c8 65 30 00 00    	imul   $0x3065,%eax,%ecx
c0100e3b:	ba cb f0 8d 28       	mov    $0x288df0cb,%edx
c0100e40:	89 c8                	mov    %ecx,%eax
c0100e42:	f7 ea                	imul   %edx
c0100e44:	c1 fa 04             	sar    $0x4,%edx
c0100e47:	89 c8                	mov    %ecx,%eax
c0100e49:	c1 f8 1f             	sar    $0x1f,%eax
c0100e4c:	29 c2                	sub    %eax,%edx
c0100e4e:	89 d0                	mov    %edx,%eax
c0100e50:	6b c0 65             	imul   $0x65,%eax,%eax
c0100e53:	29 c1                	sub    %eax,%ecx
c0100e55:	89 c8                	mov    %ecx,%eax
c0100e57:	8b 15 48 57 11 c0    	mov    0xc0115748,%edx
c0100e5d:	01 d0                	add    %edx,%eax
c0100e5f:	a3 48 57 11 c0       	mov    %eax,0xc0115748
c0100e64:	5d                   	pop    %ebp
c0100e65:	c3                   	ret    

c0100e66 <runcmd>:
c0100e66:	55                   	push   %ebp
c0100e67:	89 e5                	mov    %esp,%ebp
c0100e69:	83 ec 58             	sub    $0x58,%esp
c0100e6c:	c7 45 f4 00 00 00 00 	movl   $0x0,-0xc(%ebp)
c0100e73:	8b 45 f4             	mov    -0xc(%ebp),%eax
c0100e76:	c7 44 85 b0 00 00 00 	movl   $0x0,-0x50(%ebp,%eax,4)
c0100e7d:	00 
c0100e7e:	eb 0c                	jmp    c0100e8c <runcmd+0x26>
c0100e80:	8b 45 08             	mov    0x8(%ebp),%eax
c0100e83:	8d 50 01             	lea    0x1(%eax),%edx
c0100e86:	89 55 08             	mov    %edx,0x8(%ebp)
c0100e89:	c6 00 00             	movb   $0x0,(%eax)
c0100e8c:	8b 45 08             	mov    0x8(%ebp),%eax
c0100e8f:	0f b6 00             	movzbl (%eax),%eax
c0100e92:	84 c0                	test   %al,%al
c0100e94:	74 1e                	je     c0100eb4 <runcmd+0x4e>
c0100e96:	8b 45 08             	mov    0x8(%ebp),%eax
c0100e99:	0f b6 00             	movzbl (%eax),%eax
c0100e9c:	0f be c0             	movsbl %al,%eax
c0100e9f:	83 ec 08             	sub    $0x8,%esp
c0100ea2:	50                   	push   %eax
c0100ea3:	68 bd 6d 10 c0       	push   $0xc0106dbd
c0100ea8:	e8 7a 15 00 00       	call   c0102427 <strchr>
c0100ead:	83 c4 10             	add    $0x10,%esp
c0100eb0:	85 c0                	test   %eax,%eax
c0100eb2:	75 cc                	jne    c0100e80 <runcmd+0x1a>
c0100eb4:	8b 45 08             	mov    0x8(%ebp),%eax
c0100eb7:	0f b6 00             	movzbl (%eax),%eax
c0100eba:	84 c0                	test   %al,%al
c0100ebc:	75 14                	jne    c0100ed2 <runcmd+0x6c>
c0100ebe:	90                   	nop
c0100ebf:	8b 45 f4             	mov    -0xc(%ebp),%eax
c0100ec2:	c7 44 85 b0 00 00 00 	movl   $0x0,-0x50(%ebp,%eax,4)
c0100ec9:	00 
c0100eca:	83 7d f4 00          	cmpl   $0x0,-0xc(%ebp)
c0100ece:	75 6e                	jne    c0100f3e <runcmd+0xd8>
c0100ed0:	eb 65                	jmp    c0100f37 <runcmd+0xd1>
c0100ed2:	83 7d f4 0f          	cmpl   $0xf,-0xc(%ebp)
c0100ed6:	75 1c                	jne    c0100ef4 <runcmd+0x8e>
c0100ed8:	83 ec 08             	sub    $0x8,%esp
c0100edb:	6a 10                	push   $0x10
c0100edd:	68 c2 6d 10 c0       	push   $0xc0106dc2
c0100ee2:	e8 ce 07 00 00       	call   c01016b5 <cprintf>
c0100ee7:	83 c4 10             	add    $0x10,%esp
c0100eea:	b8 00 00 00 00       	mov    $0x0,%eax
c0100eef:	e9 c7 00 00 00       	jmp    c0100fbb <runcmd+0x155>
c0100ef4:	8b 45 f4             	mov    -0xc(%ebp),%eax
c0100ef7:	8d 50 01             	lea    0x1(%eax),%edx
c0100efa:	89 55 f4             	mov    %edx,-0xc(%ebp)
c0100efd:	8b 55 08             	mov    0x8(%ebp),%edx
c0100f00:	89 54 85 b0          	mov    %edx,-0x50(%ebp,%eax,4)
c0100f04:	eb 04                	jmp    c0100f0a <runcmd+0xa4>
c0100f06:	83 45 08 01          	addl   $0x1,0x8(%ebp)
c0100f0a:	8b 45 08             	mov    0x8(%ebp),%eax
c0100f0d:	0f b6 00             	movzbl (%eax),%eax
c0100f10:	84 c0                	test   %al,%al
c0100f12:	74 1e                	je     c0100f32 <runcmd+0xcc>
c0100f14:	8b 45 08             	mov    0x8(%ebp),%eax
c0100f17:	0f b6 00             	movzbl (%eax),%eax
c0100f1a:	0f be c0             	movsbl %al,%eax
c0100f1d:	83 ec 08             	sub    $0x8,%esp
c0100f20:	50                   	push   %eax
c0100f21:	68 bd 6d 10 c0       	push   $0xc0106dbd
c0100f26:	e8 fc 14 00 00       	call   c0102427 <strchr>
c0100f2b:	83 c4 10             	add    $0x10,%esp
c0100f2e:	85 c0                	test   %eax,%eax
c0100f30:	74 d4                	je     c0100f06 <runcmd+0xa0>
c0100f32:	e9 47 ff ff ff       	jmp    c0100e7e <runcmd+0x18>
c0100f37:	b8 00 00 00 00       	mov    $0x0,%eax
c0100f3c:	eb 7d                	jmp    c0100fbb <runcmd+0x155>
c0100f3e:	c7 45 f0 00 00 00 00 	movl   $0x0,-0x10(%ebp)
c0100f45:	eb 53                	jmp    c0100f9a <runcmd+0x134>
c0100f47:	8b 55 f0             	mov    -0x10(%ebp),%edx
c0100f4a:	89 d0                	mov    %edx,%eax
c0100f4c:	01 c0                	add    %eax,%eax
c0100f4e:	01 d0                	add    %edx,%eax
c0100f50:	c1 e0 02             	shl    $0x2,%eax
c0100f53:	05 00 90 10 c0       	add    $0xc0109000,%eax
c0100f58:	8b 10                	mov    (%eax),%edx
c0100f5a:	8b 45 b0             	mov    -0x50(%ebp),%eax
c0100f5d:	83 ec 08             	sub    $0x8,%esp
c0100f60:	52                   	push   %edx
c0100f61:	50                   	push   %eax
c0100f62:	e8 f3 14 00 00       	call   c010245a <strcmp>
c0100f67:	83 c4 10             	add    $0x10,%esp
c0100f6a:	85 c0                	test   %eax,%eax
c0100f6c:	75 28                	jne    c0100f96 <runcmd+0x130>
c0100f6e:	8b 55 f0             	mov    -0x10(%ebp),%edx
c0100f71:	89 d0                	mov    %edx,%eax
c0100f73:	01 c0                	add    %eax,%eax
c0100f75:	01 d0                	add    %edx,%eax
c0100f77:	c1 e0 02             	shl    $0x2,%eax
c0100f7a:	05 00 90 10 c0       	add    $0xc0109000,%eax
c0100f7f:	8b 40 08             	mov    0x8(%eax),%eax
c0100f82:	83 ec 04             	sub    $0x4,%esp
c0100f85:	ff 75 0c             	pushl  0xc(%ebp)
c0100f88:	8d 55 b0             	lea    -0x50(%ebp),%edx
c0100f8b:	52                   	push   %edx
c0100f8c:	ff 75 f4             	pushl  -0xc(%ebp)
c0100f8f:	ff d0                	call   *%eax
c0100f91:	83 c4 10             	add    $0x10,%esp
c0100f94:	eb 25                	jmp    c0100fbb <runcmd+0x155>
c0100f96:	83 45 f0 01          	addl   $0x1,-0x10(%ebp)
c0100f9a:	8b 45 f0             	mov    -0x10(%ebp),%eax
c0100f9d:	83 f8 07             	cmp    $0x7,%eax
c0100fa0:	76 a5                	jbe    c0100f47 <runcmd+0xe1>
c0100fa2:	8b 45 b0             	mov    -0x50(%ebp),%eax
c0100fa5:	83 ec 08             	sub    $0x8,%esp
c0100fa8:	50                   	push   %eax
c0100fa9:	68 de 6d 10 c0       	push   $0xc0106dde
c0100fae:	e8 02 07 00 00       	call   c01016b5 <cprintf>
c0100fb3:	83 c4 10             	add    $0x10,%esp
c0100fb6:	b8 00 00 00 00       	mov    $0x0,%eax
c0100fbb:	c9                   	leave  
c0100fbc:	c3                   	ret    

c0100fbd <mo_read>:
c0100fbd:	55                   	push   %ebp
c0100fbe:	89 e5                	mov    %esp,%ebp
c0100fc0:	83 ec 08             	sub    $0x8,%esp
c0100fc3:	c7 05 04 50 11 c0 00 	movl   $0x200,0xc0115004
c0100fca:	02 00 00 
c0100fcd:	83 ec 0c             	sub    $0xc,%esp
c0100fd0:	68 f4 6d 10 c0       	push   $0xc0106df4
c0100fd5:	e8 c6 0f 00 00       	call   c0101fa0 <readline>
c0100fda:	83 c4 10             	add    $0x10,%esp
c0100fdd:	a3 80 7a 16 c0       	mov    %eax,0xc0167a80
c0100fe2:	c7 05 04 50 11 c0 00 	movl   $0x0,0xc0115004
c0100fe9:	00 00 00 
c0100fec:	c9                   	leave  
c0100fed:	c3                   	ret    

c0100fee <mo_run>:
c0100fee:	55                   	push   %ebp
c0100fef:	89 e5                	mov    %esp,%ebp
c0100ff1:	83 ec 08             	sub    $0x8,%esp
c0100ff4:	e8 9c 26 00 00       	call   c0103695 <timer_event>
c0100ff9:	c9                   	leave  
c0100ffa:	c3                   	ret    

c0100ffb <monitor>:
c0100ffb:	55                   	push   %ebp
c0100ffc:	89 e5                	mov    %esp,%ebp
c0100ffe:	83 ec 18             	sub    $0x18,%esp
c0101001:	e8 24 fe ff ff       	call   c0100e2a <inc>
c0101006:	c7 05 04 50 11 c0 00 	movl   $0x200,0xc0115004
c010100d:	02 00 00 
c0101010:	83 ec 0c             	sub    $0xc,%esp
c0101013:	68 f4 6d 10 c0       	push   $0xc0106df4
c0101018:	e8 83 0f 00 00       	call   c0101fa0 <readline>
c010101d:	83 c4 10             	add    $0x10,%esp
c0101020:	89 45 f4             	mov    %eax,-0xc(%ebp)
c0101023:	8b 45 f4             	mov    -0xc(%ebp),%eax
c0101026:	0f b6 00             	movzbl (%eax),%eax
c0101029:	3c 2e                	cmp    $0x2e,%al
c010102b:	75 1c                	jne    c0101049 <monitor+0x4e>
c010102d:	8b 45 f4             	mov    -0xc(%ebp),%eax
c0101030:	83 c0 01             	add    $0x1,%eax
c0101033:	0f b6 00             	movzbl (%eax),%eax
c0101036:	3c 2f                	cmp    $0x2f,%al
c0101038:	75 0f                	jne    c0101049 <monitor+0x4e>
c010103a:	8b 45 f4             	mov    -0xc(%ebp),%eax
c010103d:	c6 00 72             	movb   $0x72,(%eax)
c0101040:	8b 45 f4             	mov    -0xc(%ebp),%eax
c0101043:	83 c0 01             	add    $0x1,%eax
c0101046:	c6 00 20             	movb   $0x20,(%eax)
c0101049:	c7 05 04 50 11 c0 00 	movl   $0x0,0xc0115004
c0101050:	00 00 00 
c0101053:	83 7d f4 00          	cmpl   $0x0,-0xc(%ebp)
c0101057:	74 17                	je     c0101070 <monitor+0x75>
c0101059:	83 ec 08             	sub    $0x8,%esp
c010105c:	ff 75 08             	pushl  0x8(%ebp)
c010105f:	ff 75 f4             	pushl  -0xc(%ebp)
c0101062:	e8 ff fd ff ff       	call   c0100e66 <runcmd>
c0101067:	83 c4 10             	add    $0x10,%esp
c010106a:	85 c0                	test   %eax,%eax
c010106c:	79 02                	jns    c0101070 <monitor+0x75>
c010106e:	eb 16                	jmp    c0101086 <monitor+0x8b>
c0101070:	e8 be 1e 00 00       	call   c0102f33 <env_create>
c0101075:	83 ec 0c             	sub    $0xc,%esp
c0101078:	50                   	push   %eax
c0101079:	e8 e0 1e 00 00       	call   c0102f5e <env_run>
c010107e:	83 c4 10             	add    $0x10,%esp
c0101081:	e9 7b ff ff ff       	jmp    c0101001 <monitor+0x6>
c0101086:	c9                   	leave  
c0101087:	c3                   	ret    

c0101088 <printnum>:
c0101088:	55                   	push   %ebp
c0101089:	89 e5                	mov    %esp,%ebp
c010108b:	53                   	push   %ebx
c010108c:	83 ec 14             	sub    $0x14,%esp
c010108f:	8b 45 10             	mov    0x10(%ebp),%eax
c0101092:	89 45 f0             	mov    %eax,-0x10(%ebp)
c0101095:	8b 45 14             	mov    0x14(%ebp),%eax
c0101098:	89 45 f4             	mov    %eax,-0xc(%ebp)
c010109b:	8b 45 18             	mov    0x18(%ebp),%eax
c010109e:	ba 00 00 00 00       	mov    $0x0,%edx
c01010a3:	3b 55 f4             	cmp    -0xc(%ebp),%edx
c01010a6:	77 55                	ja     c01010fd <printnum+0x75>
c01010a8:	3b 55 f4             	cmp    -0xc(%ebp),%edx
c01010ab:	72 05                	jb     c01010b2 <printnum+0x2a>
c01010ad:	3b 45 f0             	cmp    -0x10(%ebp),%eax
c01010b0:	77 4b                	ja     c01010fd <printnum+0x75>
c01010b2:	8b 45 1c             	mov    0x1c(%ebp),%eax
c01010b5:	8d 58 ff             	lea    -0x1(%eax),%ebx
c01010b8:	8b 45 18             	mov    0x18(%ebp),%eax
c01010bb:	ba 00 00 00 00       	mov    $0x0,%edx
c01010c0:	52                   	push   %edx
c01010c1:	50                   	push   %eax
c01010c2:	ff 75 f4             	pushl  -0xc(%ebp)
c01010c5:	ff 75 f0             	pushl  -0x10(%ebp)
c01010c8:	e8 b3 58 00 00       	call   c0106980 <__udivdi3>
c01010cd:	83 c4 10             	add    $0x10,%esp
c01010d0:	83 ec 04             	sub    $0x4,%esp
c01010d3:	ff 75 20             	pushl  0x20(%ebp)
c01010d6:	53                   	push   %ebx
c01010d7:	ff 75 18             	pushl  0x18(%ebp)
c01010da:	52                   	push   %edx
c01010db:	50                   	push   %eax
c01010dc:	ff 75 0c             	pushl  0xc(%ebp)
c01010df:	ff 75 08             	pushl  0x8(%ebp)
c01010e2:	e8 a1 ff ff ff       	call   c0101088 <printnum>
c01010e7:	83 c4 20             	add    $0x20,%esp
c01010ea:	eb 1b                	jmp    c0101107 <printnum+0x7f>
c01010ec:	83 ec 08             	sub    $0x8,%esp
c01010ef:	ff 75 0c             	pushl  0xc(%ebp)
c01010f2:	ff 75 20             	pushl  0x20(%ebp)
c01010f5:	8b 45 08             	mov    0x8(%ebp),%eax
c01010f8:	ff d0                	call   *%eax
c01010fa:	83 c4 10             	add    $0x10,%esp
c01010fd:	83 6d 1c 01          	subl   $0x1,0x1c(%ebp)
c0101101:	83 7d 1c 00          	cmpl   $0x0,0x1c(%ebp)
c0101105:	7f e5                	jg     c01010ec <printnum+0x64>
c0101107:	8b 4d 18             	mov    0x18(%ebp),%ecx
c010110a:	bb 00 00 00 00       	mov    $0x0,%ebx
c010110f:	8b 45 f0             	mov    -0x10(%ebp),%eax
c0101112:	8b 55 f4             	mov    -0xc(%ebp),%edx
c0101115:	53                   	push   %ebx
c0101116:	51                   	push   %ecx
c0101117:	52                   	push   %edx
c0101118:	50                   	push   %eax
c0101119:	e8 92 59 00 00       	call   c0106ab0 <__umoddi3>
c010111e:	83 c4 10             	add    $0x10,%esp
c0101121:	05 c0 6e 10 c0       	add    $0xc0106ec0,%eax
c0101126:	0f b6 00             	movzbl (%eax),%eax
c0101129:	0f be c0             	movsbl %al,%eax
c010112c:	83 ec 08             	sub    $0x8,%esp
c010112f:	ff 75 0c             	pushl  0xc(%ebp)
c0101132:	50                   	push   %eax
c0101133:	8b 45 08             	mov    0x8(%ebp),%eax
c0101136:	ff d0                	call   *%eax
c0101138:	83 c4 10             	add    $0x10,%esp
c010113b:	8b 5d fc             	mov    -0x4(%ebp),%ebx
c010113e:	c9                   	leave  
c010113f:	c3                   	ret    

c0101140 <getuint>:
c0101140:	55                   	push   %ebp
c0101141:	89 e5                	mov    %esp,%ebp
c0101143:	83 7d 0c 01          	cmpl   $0x1,0xc(%ebp)
c0101147:	7e 14                	jle    c010115d <getuint+0x1d>
c0101149:	8b 45 08             	mov    0x8(%ebp),%eax
c010114c:	8b 00                	mov    (%eax),%eax
c010114e:	8d 48 08             	lea    0x8(%eax),%ecx
c0101151:	8b 55 08             	mov    0x8(%ebp),%edx
c0101154:	89 0a                	mov    %ecx,(%edx)
c0101156:	8b 50 04             	mov    0x4(%eax),%edx
c0101159:	8b 00                	mov    (%eax),%eax
c010115b:	eb 30                	jmp    c010118d <getuint+0x4d>
c010115d:	83 7d 0c 00          	cmpl   $0x0,0xc(%ebp)
c0101161:	74 16                	je     c0101179 <getuint+0x39>
c0101163:	8b 45 08             	mov    0x8(%ebp),%eax
c0101166:	8b 00                	mov    (%eax),%eax
c0101168:	8d 48 04             	lea    0x4(%eax),%ecx
c010116b:	8b 55 08             	mov    0x8(%ebp),%edx
c010116e:	89 0a                	mov    %ecx,(%edx)
c0101170:	8b 00                	mov    (%eax),%eax
c0101172:	ba 00 00 00 00       	mov    $0x0,%edx
c0101177:	eb 14                	jmp    c010118d <getuint+0x4d>
c0101179:	8b 45 08             	mov    0x8(%ebp),%eax
c010117c:	8b 00                	mov    (%eax),%eax
c010117e:	8d 48 04             	lea    0x4(%eax),%ecx
c0101181:	8b 55 08             	mov    0x8(%ebp),%edx
c0101184:	89 0a                	mov    %ecx,(%edx)
c0101186:	8b 00                	mov    (%eax),%eax
c0101188:	ba 00 00 00 00       	mov    $0x0,%edx
c010118d:	5d                   	pop    %ebp
c010118e:	c3                   	ret    

c010118f <getint>:
c010118f:	55                   	push   %ebp
c0101190:	89 e5                	mov    %esp,%ebp
c0101192:	83 7d 0c 01          	cmpl   $0x1,0xc(%ebp)
c0101196:	7e 14                	jle    c01011ac <getint+0x1d>
c0101198:	8b 45 08             	mov    0x8(%ebp),%eax
c010119b:	8b 00                	mov    (%eax),%eax
c010119d:	8d 48 08             	lea    0x8(%eax),%ecx
c01011a0:	8b 55 08             	mov    0x8(%ebp),%edx
c01011a3:	89 0a                	mov    %ecx,(%edx)
c01011a5:	8b 50 04             	mov    0x4(%eax),%edx
c01011a8:	8b 00                	mov    (%eax),%eax
c01011aa:	eb 28                	jmp    c01011d4 <getint+0x45>
c01011ac:	83 7d 0c 00          	cmpl   $0x0,0xc(%ebp)
c01011b0:	74 12                	je     c01011c4 <getint+0x35>
c01011b2:	8b 45 08             	mov    0x8(%ebp),%eax
c01011b5:	8b 00                	mov    (%eax),%eax
c01011b7:	8d 48 04             	lea    0x4(%eax),%ecx
c01011ba:	8b 55 08             	mov    0x8(%ebp),%edx
c01011bd:	89 0a                	mov    %ecx,(%edx)
c01011bf:	8b 00                	mov    (%eax),%eax
c01011c1:	99                   	cltd   
c01011c2:	eb 10                	jmp    c01011d4 <getint+0x45>
c01011c4:	8b 45 08             	mov    0x8(%ebp),%eax
c01011c7:	8b 00                	mov    (%eax),%eax
c01011c9:	8d 48 04             	lea    0x4(%eax),%ecx
c01011cc:	8b 55 08             	mov    0x8(%ebp),%edx
c01011cf:	89 0a                	mov    %ecx,(%edx)
c01011d1:	8b 00                	mov    (%eax),%eax
c01011d3:	99                   	cltd   
c01011d4:	5d                   	pop    %ebp
c01011d5:	c3                   	ret    

c01011d6 <vprintfmt>:
c01011d6:	55                   	push   %ebp
c01011d7:	89 e5                	mov    %esp,%ebp
c01011d9:	56                   	push   %esi
c01011da:	53                   	push   %ebx
c01011db:	83 ec 20             	sub    $0x20,%esp
c01011de:	eb 18                	jmp    c01011f8 <vprintfmt+0x22>
c01011e0:	85 db                	test   %ebx,%ebx
c01011e2:	75 05                	jne    c01011e9 <vprintfmt+0x13>
c01011e4:	e9 9d 03 00 00       	jmp    c0101586 <vprintfmt+0x3b0>
c01011e9:	83 ec 08             	sub    $0x8,%esp
c01011ec:	ff 75 0c             	pushl  0xc(%ebp)
c01011ef:	53                   	push   %ebx
c01011f0:	8b 45 08             	mov    0x8(%ebp),%eax
c01011f3:	ff d0                	call   *%eax
c01011f5:	83 c4 10             	add    $0x10,%esp
c01011f8:	8b 45 10             	mov    0x10(%ebp),%eax
c01011fb:	8d 50 01             	lea    0x1(%eax),%edx
c01011fe:	89 55 10             	mov    %edx,0x10(%ebp)
c0101201:	0f b6 00             	movzbl (%eax),%eax
c0101204:	0f b6 d8             	movzbl %al,%ebx
c0101207:	83 fb 25             	cmp    $0x25,%ebx
c010120a:	75 d4                	jne    c01011e0 <vprintfmt+0xa>
c010120c:	c6 45 db 20          	movb   $0x20,-0x25(%ebp)
c0101210:	c7 45 e4 ff ff ff ff 	movl   $0xffffffff,-0x1c(%ebp)
c0101217:	c7 45 e0 ff ff ff ff 	movl   $0xffffffff,-0x20(%ebp)
c010121e:	c7 45 e8 00 00 00 00 	movl   $0x0,-0x18(%ebp)
c0101225:	c7 45 dc 00 00 00 00 	movl   $0x0,-0x24(%ebp)
c010122c:	8b 45 10             	mov    0x10(%ebp),%eax
c010122f:	8d 50 01             	lea    0x1(%eax),%edx
c0101232:	89 55 10             	mov    %edx,0x10(%ebp)
c0101235:	0f b6 00             	movzbl (%eax),%eax
c0101238:	0f b6 d8             	movzbl %al,%ebx
c010123b:	8d 43 dd             	lea    -0x23(%ebx),%eax
c010123e:	83 f8 55             	cmp    $0x55,%eax
c0101241:	0f 87 12 03 00 00    	ja     c0101559 <vprintfmt+0x383>
c0101247:	8b 04 85 e4 6e 10 c0 	mov    -0x3fef911c(,%eax,4),%eax
c010124e:	ff e0                	jmp    *%eax
c0101250:	c6 45 db 2d          	movb   $0x2d,-0x25(%ebp)
c0101254:	eb d6                	jmp    c010122c <vprintfmt+0x56>
c0101256:	c6 45 db 30          	movb   $0x30,-0x25(%ebp)
c010125a:	eb d0                	jmp    c010122c <vprintfmt+0x56>
c010125c:	c7 45 e0 00 00 00 00 	movl   $0x0,-0x20(%ebp)
c0101263:	8b 55 e0             	mov    -0x20(%ebp),%edx
c0101266:	89 d0                	mov    %edx,%eax
c0101268:	c1 e0 02             	shl    $0x2,%eax
c010126b:	01 d0                	add    %edx,%eax
c010126d:	01 c0                	add    %eax,%eax
c010126f:	01 d8                	add    %ebx,%eax
c0101271:	83 e8 30             	sub    $0x30,%eax
c0101274:	89 45 e0             	mov    %eax,-0x20(%ebp)
c0101277:	8b 45 10             	mov    0x10(%ebp),%eax
c010127a:	0f b6 00             	movzbl (%eax),%eax
c010127d:	0f be d8             	movsbl %al,%ebx
c0101280:	83 fb 2f             	cmp    $0x2f,%ebx
c0101283:	7e 0b                	jle    c0101290 <vprintfmt+0xba>
c0101285:	83 fb 39             	cmp    $0x39,%ebx
c0101288:	7f 06                	jg     c0101290 <vprintfmt+0xba>
c010128a:	83 45 10 01          	addl   $0x1,0x10(%ebp)
c010128e:	eb d3                	jmp    c0101263 <vprintfmt+0x8d>
c0101290:	eb 2e                	jmp    c01012c0 <vprintfmt+0xea>
c0101292:	8b 45 14             	mov    0x14(%ebp),%eax
c0101295:	8d 50 04             	lea    0x4(%eax),%edx
c0101298:	89 55 14             	mov    %edx,0x14(%ebp)
c010129b:	8b 00                	mov    (%eax),%eax
c010129d:	89 45 e0             	mov    %eax,-0x20(%ebp)
c01012a0:	eb 1e                	jmp    c01012c0 <vprintfmt+0xea>
c01012a2:	83 7d e4 00          	cmpl   $0x0,-0x1c(%ebp)
c01012a6:	79 07                	jns    c01012af <vprintfmt+0xd9>
c01012a8:	c7 45 e4 00 00 00 00 	movl   $0x0,-0x1c(%ebp)
c01012af:	e9 78 ff ff ff       	jmp    c010122c <vprintfmt+0x56>
c01012b4:	c7 45 dc 01 00 00 00 	movl   $0x1,-0x24(%ebp)
c01012bb:	e9 6c ff ff ff       	jmp    c010122c <vprintfmt+0x56>
c01012c0:	83 7d e4 00          	cmpl   $0x0,-0x1c(%ebp)
c01012c4:	79 0d                	jns    c01012d3 <vprintfmt+0xfd>
c01012c6:	8b 45 e0             	mov    -0x20(%ebp),%eax
c01012c9:	89 45 e4             	mov    %eax,-0x1c(%ebp)
c01012cc:	c7 45 e0 ff ff ff ff 	movl   $0xffffffff,-0x20(%ebp)
c01012d3:	e9 54 ff ff ff       	jmp    c010122c <vprintfmt+0x56>
c01012d8:	83 45 e8 01          	addl   $0x1,-0x18(%ebp)
c01012dc:	e9 4b ff ff ff       	jmp    c010122c <vprintfmt+0x56>
c01012e1:	8b 45 14             	mov    0x14(%ebp),%eax
c01012e4:	8d 50 04             	lea    0x4(%eax),%edx
c01012e7:	89 55 14             	mov    %edx,0x14(%ebp)
c01012ea:	8b 00                	mov    (%eax),%eax
c01012ec:	83 ec 08             	sub    $0x8,%esp
c01012ef:	ff 75 0c             	pushl  0xc(%ebp)
c01012f2:	50                   	push   %eax
c01012f3:	8b 45 08             	mov    0x8(%ebp),%eax
c01012f6:	ff d0                	call   *%eax
c01012f8:	83 c4 10             	add    $0x10,%esp
c01012fb:	e9 81 02 00 00       	jmp    c0101581 <vprintfmt+0x3ab>
c0101300:	8b 45 14             	mov    0x14(%ebp),%eax
c0101303:	8d 50 04             	lea    0x4(%eax),%edx
c0101306:	89 55 14             	mov    %edx,0x14(%ebp)
c0101309:	8b 18                	mov    (%eax),%ebx
c010130b:	85 db                	test   %ebx,%ebx
c010130d:	79 02                	jns    c0101311 <vprintfmt+0x13b>
c010130f:	f7 db                	neg    %ebx
c0101311:	83 fb 07             	cmp    $0x7,%ebx
c0101314:	7f 0b                	jg     c0101321 <vprintfmt+0x14b>
c0101316:	8b 34 9d a0 6e 10 c0 	mov    -0x3fef9160(,%ebx,4),%esi
c010131d:	85 f6                	test   %esi,%esi
c010131f:	75 19                	jne    c010133a <vprintfmt+0x164>
c0101321:	53                   	push   %ebx
c0101322:	68 d1 6e 10 c0       	push   $0xc0106ed1
c0101327:	ff 75 0c             	pushl  0xc(%ebp)
c010132a:	ff 75 08             	pushl  0x8(%ebp)
c010132d:	e8 5b 02 00 00       	call   c010158d <printfmt>
c0101332:	83 c4 10             	add    $0x10,%esp
c0101335:	e9 47 02 00 00       	jmp    c0101581 <vprintfmt+0x3ab>
c010133a:	56                   	push   %esi
c010133b:	68 da 6e 10 c0       	push   $0xc0106eda
c0101340:	ff 75 0c             	pushl  0xc(%ebp)
c0101343:	ff 75 08             	pushl  0x8(%ebp)
c0101346:	e8 42 02 00 00       	call   c010158d <printfmt>
c010134b:	83 c4 10             	add    $0x10,%esp
c010134e:	e9 2e 02 00 00       	jmp    c0101581 <vprintfmt+0x3ab>
c0101353:	8b 45 14             	mov    0x14(%ebp),%eax
c0101356:	8d 50 04             	lea    0x4(%eax),%edx
c0101359:	89 55 14             	mov    %edx,0x14(%ebp)
c010135c:	8b 30                	mov    (%eax),%esi
c010135e:	85 f6                	test   %esi,%esi
c0101360:	75 05                	jne    c0101367 <vprintfmt+0x191>
c0101362:	be dd 6e 10 c0       	mov    $0xc0106edd,%esi
c0101367:	83 7d e4 00          	cmpl   $0x0,-0x1c(%ebp)
c010136b:	7e 38                	jle    c01013a5 <vprintfmt+0x1cf>
c010136d:	80 7d db 2d          	cmpb   $0x2d,-0x25(%ebp)
c0101371:	74 32                	je     c01013a5 <vprintfmt+0x1cf>
c0101373:	8b 45 e0             	mov    -0x20(%ebp),%eax
c0101376:	83 ec 08             	sub    $0x8,%esp
c0101379:	50                   	push   %eax
c010137a:	56                   	push   %esi
c010137b:	e8 dd 11 00 00       	call   c010255d <strnlen>
c0101380:	83 c4 10             	add    $0x10,%esp
c0101383:	29 45 e4             	sub    %eax,-0x1c(%ebp)
c0101386:	eb 17                	jmp    c010139f <vprintfmt+0x1c9>
c0101388:	0f be 45 db          	movsbl -0x25(%ebp),%eax
c010138c:	83 ec 08             	sub    $0x8,%esp
c010138f:	ff 75 0c             	pushl  0xc(%ebp)
c0101392:	50                   	push   %eax
c0101393:	8b 45 08             	mov    0x8(%ebp),%eax
c0101396:	ff d0                	call   *%eax
c0101398:	83 c4 10             	add    $0x10,%esp
c010139b:	83 6d e4 01          	subl   $0x1,-0x1c(%ebp)
c010139f:	83 7d e4 00          	cmpl   $0x0,-0x1c(%ebp)
c01013a3:	7f e3                	jg     c0101388 <vprintfmt+0x1b2>
c01013a5:	eb 35                	jmp    c01013dc <vprintfmt+0x206>
c01013a7:	83 7d dc 00          	cmpl   $0x0,-0x24(%ebp)
c01013ab:	74 1c                	je     c01013c9 <vprintfmt+0x1f3>
c01013ad:	83 fb 1f             	cmp    $0x1f,%ebx
c01013b0:	7e 05                	jle    c01013b7 <vprintfmt+0x1e1>
c01013b2:	83 fb 7e             	cmp    $0x7e,%ebx
c01013b5:	7e 12                	jle    c01013c9 <vprintfmt+0x1f3>
c01013b7:	83 ec 08             	sub    $0x8,%esp
c01013ba:	ff 75 0c             	pushl  0xc(%ebp)
c01013bd:	6a 3f                	push   $0x3f
c01013bf:	8b 45 08             	mov    0x8(%ebp),%eax
c01013c2:	ff d0                	call   *%eax
c01013c4:	83 c4 10             	add    $0x10,%esp
c01013c7:	eb 0f                	jmp    c01013d8 <vprintfmt+0x202>
c01013c9:	83 ec 08             	sub    $0x8,%esp
c01013cc:	ff 75 0c             	pushl  0xc(%ebp)
c01013cf:	53                   	push   %ebx
c01013d0:	8b 45 08             	mov    0x8(%ebp),%eax
c01013d3:	ff d0                	call   *%eax
c01013d5:	83 c4 10             	add    $0x10,%esp
c01013d8:	83 6d e4 01          	subl   $0x1,-0x1c(%ebp)
c01013dc:	89 f0                	mov    %esi,%eax
c01013de:	8d 70 01             	lea    0x1(%eax),%esi
c01013e1:	0f b6 00             	movzbl (%eax),%eax
c01013e4:	0f be d8             	movsbl %al,%ebx
c01013e7:	85 db                	test   %ebx,%ebx
c01013e9:	74 10                	je     c01013fb <vprintfmt+0x225>
c01013eb:	83 7d e0 00          	cmpl   $0x0,-0x20(%ebp)
c01013ef:	78 b6                	js     c01013a7 <vprintfmt+0x1d1>
c01013f1:	83 6d e0 01          	subl   $0x1,-0x20(%ebp)
c01013f5:	83 7d e0 00          	cmpl   $0x0,-0x20(%ebp)
c01013f9:	79 ac                	jns    c01013a7 <vprintfmt+0x1d1>
c01013fb:	eb 14                	jmp    c0101411 <vprintfmt+0x23b>
c01013fd:	83 ec 08             	sub    $0x8,%esp
c0101400:	ff 75 0c             	pushl  0xc(%ebp)
c0101403:	6a 20                	push   $0x20
c0101405:	8b 45 08             	mov    0x8(%ebp),%eax
c0101408:	ff d0                	call   *%eax
c010140a:	83 c4 10             	add    $0x10,%esp
c010140d:	83 6d e4 01          	subl   $0x1,-0x1c(%ebp)
c0101411:	83 7d e4 00          	cmpl   $0x0,-0x1c(%ebp)
c0101415:	7f e6                	jg     c01013fd <vprintfmt+0x227>
c0101417:	e9 65 01 00 00       	jmp    c0101581 <vprintfmt+0x3ab>
c010141c:	83 ec 08             	sub    $0x8,%esp
c010141f:	ff 75 e8             	pushl  -0x18(%ebp)
c0101422:	8d 45 14             	lea    0x14(%ebp),%eax
c0101425:	50                   	push   %eax
c0101426:	e8 64 fd ff ff       	call   c010118f <getint>
c010142b:	83 c4 10             	add    $0x10,%esp
c010142e:	89 45 f0             	mov    %eax,-0x10(%ebp)
c0101431:	89 55 f4             	mov    %edx,-0xc(%ebp)
c0101434:	8b 45 f0             	mov    -0x10(%ebp),%eax
c0101437:	8b 55 f4             	mov    -0xc(%ebp),%edx
c010143a:	85 d2                	test   %edx,%edx
c010143c:	79 23                	jns    c0101461 <vprintfmt+0x28b>
c010143e:	83 ec 08             	sub    $0x8,%esp
c0101441:	ff 75 0c             	pushl  0xc(%ebp)
c0101444:	6a 2d                	push   $0x2d
c0101446:	8b 45 08             	mov    0x8(%ebp),%eax
c0101449:	ff d0                	call   *%eax
c010144b:	83 c4 10             	add    $0x10,%esp
c010144e:	8b 45 f0             	mov    -0x10(%ebp),%eax
c0101451:	8b 55 f4             	mov    -0xc(%ebp),%edx
c0101454:	f7 d8                	neg    %eax
c0101456:	83 d2 00             	adc    $0x0,%edx
c0101459:	f7 da                	neg    %edx
c010145b:	89 45 f0             	mov    %eax,-0x10(%ebp)
c010145e:	89 55 f4             	mov    %edx,-0xc(%ebp)
c0101461:	c7 45 ec 0a 00 00 00 	movl   $0xa,-0x14(%ebp)
c0101468:	e9 b6 00 00 00       	jmp    c0101523 <vprintfmt+0x34d>
c010146d:	83 ec 08             	sub    $0x8,%esp
c0101470:	ff 75 e8             	pushl  -0x18(%ebp)
c0101473:	8d 45 14             	lea    0x14(%ebp),%eax
c0101476:	50                   	push   %eax
c0101477:	e8 c4 fc ff ff       	call   c0101140 <getuint>
c010147c:	83 c4 10             	add    $0x10,%esp
c010147f:	89 45 f0             	mov    %eax,-0x10(%ebp)
c0101482:	89 55 f4             	mov    %edx,-0xc(%ebp)
c0101485:	c7 45 ec 0a 00 00 00 	movl   $0xa,-0x14(%ebp)
c010148c:	e9 92 00 00 00       	jmp    c0101523 <vprintfmt+0x34d>
c0101491:	83 ec 08             	sub    $0x8,%esp
c0101494:	ff 75 0c             	pushl  0xc(%ebp)
c0101497:	6a 58                	push   $0x58
c0101499:	8b 45 08             	mov    0x8(%ebp),%eax
c010149c:	ff d0                	call   *%eax
c010149e:	83 c4 10             	add    $0x10,%esp
c01014a1:	83 ec 08             	sub    $0x8,%esp
c01014a4:	ff 75 0c             	pushl  0xc(%ebp)
c01014a7:	6a 58                	push   $0x58
c01014a9:	8b 45 08             	mov    0x8(%ebp),%eax
c01014ac:	ff d0                	call   *%eax
c01014ae:	83 c4 10             	add    $0x10,%esp
c01014b1:	83 ec 08             	sub    $0x8,%esp
c01014b4:	ff 75 0c             	pushl  0xc(%ebp)
c01014b7:	6a 58                	push   $0x58
c01014b9:	8b 45 08             	mov    0x8(%ebp),%eax
c01014bc:	ff d0                	call   *%eax
c01014be:	83 c4 10             	add    $0x10,%esp
c01014c1:	e9 bb 00 00 00       	jmp    c0101581 <vprintfmt+0x3ab>
c01014c6:	83 ec 08             	sub    $0x8,%esp
c01014c9:	ff 75 0c             	pushl  0xc(%ebp)
c01014cc:	6a 30                	push   $0x30
c01014ce:	8b 45 08             	mov    0x8(%ebp),%eax
c01014d1:	ff d0                	call   *%eax
c01014d3:	83 c4 10             	add    $0x10,%esp
c01014d6:	83 ec 08             	sub    $0x8,%esp
c01014d9:	ff 75 0c             	pushl  0xc(%ebp)
c01014dc:	6a 78                	push   $0x78
c01014de:	8b 45 08             	mov    0x8(%ebp),%eax
c01014e1:	ff d0                	call   *%eax
c01014e3:	83 c4 10             	add    $0x10,%esp
c01014e6:	8b 45 14             	mov    0x14(%ebp),%eax
c01014e9:	8d 50 04             	lea    0x4(%eax),%edx
c01014ec:	89 55 14             	mov    %edx,0x14(%ebp)
c01014ef:	8b 00                	mov    (%eax),%eax
c01014f1:	89 45 f0             	mov    %eax,-0x10(%ebp)
c01014f4:	c7 45 f4 00 00 00 00 	movl   $0x0,-0xc(%ebp)
c01014fb:	c7 45 ec 10 00 00 00 	movl   $0x10,-0x14(%ebp)
c0101502:	eb 1f                	jmp    c0101523 <vprintfmt+0x34d>
c0101504:	83 ec 08             	sub    $0x8,%esp
c0101507:	ff 75 e8             	pushl  -0x18(%ebp)
c010150a:	8d 45 14             	lea    0x14(%ebp),%eax
c010150d:	50                   	push   %eax
c010150e:	e8 2d fc ff ff       	call   c0101140 <getuint>
c0101513:	83 c4 10             	add    $0x10,%esp
c0101516:	89 45 f0             	mov    %eax,-0x10(%ebp)
c0101519:	89 55 f4             	mov    %edx,-0xc(%ebp)
c010151c:	c7 45 ec 10 00 00 00 	movl   $0x10,-0x14(%ebp)
c0101523:	0f be 55 db          	movsbl -0x25(%ebp),%edx
c0101527:	8b 45 ec             	mov    -0x14(%ebp),%eax
c010152a:	83 ec 04             	sub    $0x4,%esp
c010152d:	52                   	push   %edx
c010152e:	ff 75 e4             	pushl  -0x1c(%ebp)
c0101531:	50                   	push   %eax
c0101532:	ff 75 f4             	pushl  -0xc(%ebp)
c0101535:	ff 75 f0             	pushl  -0x10(%ebp)
c0101538:	ff 75 0c             	pushl  0xc(%ebp)
c010153b:	ff 75 08             	pushl  0x8(%ebp)
c010153e:	e8 45 fb ff ff       	call   c0101088 <printnum>
c0101543:	83 c4 20             	add    $0x20,%esp
c0101546:	eb 39                	jmp    c0101581 <vprintfmt+0x3ab>
c0101548:	83 ec 08             	sub    $0x8,%esp
c010154b:	ff 75 0c             	pushl  0xc(%ebp)
c010154e:	53                   	push   %ebx
c010154f:	8b 45 08             	mov    0x8(%ebp),%eax
c0101552:	ff d0                	call   *%eax
c0101554:	83 c4 10             	add    $0x10,%esp
c0101557:	eb 28                	jmp    c0101581 <vprintfmt+0x3ab>
c0101559:	83 ec 08             	sub    $0x8,%esp
c010155c:	ff 75 0c             	pushl  0xc(%ebp)
c010155f:	6a 25                	push   $0x25
c0101561:	8b 45 08             	mov    0x8(%ebp),%eax
c0101564:	ff d0                	call   *%eax
c0101566:	83 c4 10             	add    $0x10,%esp
c0101569:	83 6d 10 01          	subl   $0x1,0x10(%ebp)
c010156d:	eb 04                	jmp    c0101573 <vprintfmt+0x39d>
c010156f:	83 6d 10 01          	subl   $0x1,0x10(%ebp)
c0101573:	8b 45 10             	mov    0x10(%ebp),%eax
c0101576:	83 e8 01             	sub    $0x1,%eax
c0101579:	0f b6 00             	movzbl (%eax),%eax
c010157c:	3c 25                	cmp    $0x25,%al
c010157e:	75 ef                	jne    c010156f <vprintfmt+0x399>
c0101580:	90                   	nop
c0101581:	e9 58 fc ff ff       	jmp    c01011de <vprintfmt+0x8>
c0101586:	8d 65 f8             	lea    -0x8(%ebp),%esp
c0101589:	5b                   	pop    %ebx
c010158a:	5e                   	pop    %esi
c010158b:	5d                   	pop    %ebp
c010158c:	c3                   	ret    

c010158d <printfmt>:
c010158d:	55                   	push   %ebp
c010158e:	89 e5                	mov    %esp,%ebp
c0101590:	83 ec 18             	sub    $0x18,%esp
c0101593:	8d 45 14             	lea    0x14(%ebp),%eax
c0101596:	89 45 f4             	mov    %eax,-0xc(%ebp)
c0101599:	8b 45 f4             	mov    -0xc(%ebp),%eax
c010159c:	50                   	push   %eax
c010159d:	ff 75 10             	pushl  0x10(%ebp)
c01015a0:	ff 75 0c             	pushl  0xc(%ebp)
c01015a3:	ff 75 08             	pushl  0x8(%ebp)
c01015a6:	e8 2b fc ff ff       	call   c01011d6 <vprintfmt>
c01015ab:	83 c4 10             	add    $0x10,%esp
c01015ae:	c9                   	leave  
c01015af:	c3                   	ret    

c01015b0 <sprintputch>:
c01015b0:	55                   	push   %ebp
c01015b1:	89 e5                	mov    %esp,%ebp
c01015b3:	8b 45 0c             	mov    0xc(%ebp),%eax
c01015b6:	8b 40 08             	mov    0x8(%eax),%eax
c01015b9:	8d 50 01             	lea    0x1(%eax),%edx
c01015bc:	8b 45 0c             	mov    0xc(%ebp),%eax
c01015bf:	89 50 08             	mov    %edx,0x8(%eax)
c01015c2:	8b 45 0c             	mov    0xc(%ebp),%eax
c01015c5:	8b 10                	mov    (%eax),%edx
c01015c7:	8b 45 0c             	mov    0xc(%ebp),%eax
c01015ca:	8b 40 04             	mov    0x4(%eax),%eax
c01015cd:	39 c2                	cmp    %eax,%edx
c01015cf:	73 12                	jae    c01015e3 <sprintputch+0x33>
c01015d1:	8b 45 0c             	mov    0xc(%ebp),%eax
c01015d4:	8b 00                	mov    (%eax),%eax
c01015d6:	8d 48 01             	lea    0x1(%eax),%ecx
c01015d9:	8b 55 0c             	mov    0xc(%ebp),%edx
c01015dc:	89 0a                	mov    %ecx,(%edx)
c01015de:	8b 55 08             	mov    0x8(%ebp),%edx
c01015e1:	88 10                	mov    %dl,(%eax)
c01015e3:	5d                   	pop    %ebp
c01015e4:	c3                   	ret    

c01015e5 <vsnprintf>:
c01015e5:	55                   	push   %ebp
c01015e6:	89 e5                	mov    %esp,%ebp
c01015e8:	83 ec 18             	sub    $0x18,%esp
c01015eb:	8b 45 08             	mov    0x8(%ebp),%eax
c01015ee:	89 45 ec             	mov    %eax,-0x14(%ebp)
c01015f1:	8b 45 0c             	mov    0xc(%ebp),%eax
c01015f4:	8d 50 ff             	lea    -0x1(%eax),%edx
c01015f7:	8b 45 08             	mov    0x8(%ebp),%eax
c01015fa:	01 d0                	add    %edx,%eax
c01015fc:	89 45 f0             	mov    %eax,-0x10(%ebp)
c01015ff:	c7 45 f4 00 00 00 00 	movl   $0x0,-0xc(%ebp)
c0101606:	83 7d 08 00          	cmpl   $0x0,0x8(%ebp)
c010160a:	74 06                	je     c0101612 <vsnprintf+0x2d>
c010160c:	83 7d 0c 00          	cmpl   $0x0,0xc(%ebp)
c0101610:	7f 07                	jg     c0101619 <vsnprintf+0x34>
c0101612:	b8 fd ff ff ff       	mov    $0xfffffffd,%eax
c0101617:	eb 20                	jmp    c0101639 <vsnprintf+0x54>
c0101619:	ff 75 14             	pushl  0x14(%ebp)
c010161c:	ff 75 10             	pushl  0x10(%ebp)
c010161f:	8d 45 ec             	lea    -0x14(%ebp),%eax
c0101622:	50                   	push   %eax
c0101623:	68 b0 15 10 c0       	push   $0xc01015b0
c0101628:	e8 a9 fb ff ff       	call   c01011d6 <vprintfmt>
c010162d:	83 c4 10             	add    $0x10,%esp
c0101630:	8b 45 ec             	mov    -0x14(%ebp),%eax
c0101633:	c6 00 00             	movb   $0x0,(%eax)
c0101636:	8b 45 f4             	mov    -0xc(%ebp),%eax
c0101639:	c9                   	leave  
c010163a:	c3                   	ret    

c010163b <snprintf>:
c010163b:	55                   	push   %ebp
c010163c:	89 e5                	mov    %esp,%ebp
c010163e:	83 ec 18             	sub    $0x18,%esp
c0101641:	8d 45 14             	lea    0x14(%ebp),%eax
c0101644:	89 45 f0             	mov    %eax,-0x10(%ebp)
c0101647:	8b 45 f0             	mov    -0x10(%ebp),%eax
c010164a:	50                   	push   %eax
c010164b:	ff 75 10             	pushl  0x10(%ebp)
c010164e:	ff 75 0c             	pushl  0xc(%ebp)
c0101651:	ff 75 08             	pushl  0x8(%ebp)
c0101654:	e8 8c ff ff ff       	call   c01015e5 <vsnprintf>
c0101659:	83 c4 10             	add    $0x10,%esp
c010165c:	89 45 f4             	mov    %eax,-0xc(%ebp)
c010165f:	8b 45 f4             	mov    -0xc(%ebp),%eax
c0101662:	c9                   	leave  
c0101663:	c3                   	ret    

c0101664 <putch>:
c0101664:	55                   	push   %ebp
c0101665:	89 e5                	mov    %esp,%ebp
c0101667:	83 ec 08             	sub    $0x8,%esp
c010166a:	8b 15 04 50 11 c0    	mov    0xc0115004,%edx
c0101670:	8b 45 08             	mov    0x8(%ebp),%eax
c0101673:	01 d0                	add    %edx,%eax
c0101675:	83 ec 0c             	sub    $0xc,%esp
c0101678:	50                   	push   %eax
c0101679:	e8 e9 08 00 00       	call   c0101f67 <cputchar>
c010167e:	83 c4 10             	add    $0x10,%esp
c0101681:	8b 45 0c             	mov    0xc(%ebp),%eax
c0101684:	83 c0 04             	add    $0x4,%eax
c0101687:	89 45 0c             	mov    %eax,0xc(%ebp)
c010168a:	c9                   	leave  
c010168b:	c3                   	ret    

c010168c <vcprintf>:
c010168c:	55                   	push   %ebp
c010168d:	89 e5                	mov    %esp,%ebp
c010168f:	83 ec 18             	sub    $0x18,%esp
c0101692:	c7 45 f4 00 00 00 00 	movl   $0x0,-0xc(%ebp)
c0101699:	ff 75 0c             	pushl  0xc(%ebp)
c010169c:	ff 75 08             	pushl  0x8(%ebp)
c010169f:	8d 45 f4             	lea    -0xc(%ebp),%eax
c01016a2:	50                   	push   %eax
c01016a3:	68 64 16 10 c0       	push   $0xc0101664
c01016a8:	e8 29 fb ff ff       	call   c01011d6 <vprintfmt>
c01016ad:	83 c4 10             	add    $0x10,%esp
c01016b0:	8b 45 f4             	mov    -0xc(%ebp),%eax
c01016b3:	c9                   	leave  
c01016b4:	c3                   	ret    

c01016b5 <cprintf>:
c01016b5:	55                   	push   %ebp
c01016b6:	89 e5                	mov    %esp,%ebp
c01016b8:	83 ec 18             	sub    $0x18,%esp
c01016bb:	8d 45 0c             	lea    0xc(%ebp),%eax
c01016be:	89 45 f0             	mov    %eax,-0x10(%ebp)
c01016c1:	8b 45 f0             	mov    -0x10(%ebp),%eax
c01016c4:	83 ec 08             	sub    $0x8,%esp
c01016c7:	50                   	push   %eax
c01016c8:	ff 75 08             	pushl  0x8(%ebp)
c01016cb:	e8 bc ff ff ff       	call   c010168c <vcprintf>
c01016d0:	83 c4 10             	add    $0x10,%esp
c01016d3:	89 45 f4             	mov    %eax,-0xc(%ebp)
c01016d6:	8b 45 f4             	mov    -0xc(%ebp),%eax
c01016d9:	c9                   	leave  
c01016da:	c3                   	ret    

c01016db <delay>:
c01016db:	55                   	push   %ebp
c01016dc:	89 e5                	mov    %esp,%ebp
c01016de:	83 ec 20             	sub    $0x20,%esp
c01016e1:	c7 45 fc 84 00 00 00 	movl   $0x84,-0x4(%ebp)
c01016e8:	8b 45 fc             	mov    -0x4(%ebp),%eax
c01016eb:	89 c2                	mov    %eax,%edx
c01016ed:	ec                   	in     (%dx),%al
c01016ee:	88 45 fb             	mov    %al,-0x5(%ebp)
c01016f1:	c7 45 f4 84 00 00 00 	movl   $0x84,-0xc(%ebp)
c01016f8:	8b 45 f4             	mov    -0xc(%ebp),%eax
c01016fb:	89 c2                	mov    %eax,%edx
c01016fd:	ec                   	in     (%dx),%al
c01016fe:	88 45 f3             	mov    %al,-0xd(%ebp)
c0101701:	c7 45 ec 84 00 00 00 	movl   $0x84,-0x14(%ebp)
c0101708:	8b 45 ec             	mov    -0x14(%ebp),%eax
c010170b:	89 c2                	mov    %eax,%edx
c010170d:	ec                   	in     (%dx),%al
c010170e:	88 45 eb             	mov    %al,-0x15(%ebp)
c0101711:	c7 45 e4 84 00 00 00 	movl   $0x84,-0x1c(%ebp)
c0101718:	8b 45 e4             	mov    -0x1c(%ebp),%eax
c010171b:	89 c2                	mov    %eax,%edx
c010171d:	ec                   	in     (%dx),%al
c010171e:	88 45 e3             	mov    %al,-0x1d(%ebp)
c0101721:	c9                   	leave  
c0101722:	c3                   	ret    

c0101723 <serial_proc_data>:
c0101723:	55                   	push   %ebp
c0101724:	89 e5                	mov    %esp,%ebp
c0101726:	83 ec 10             	sub    $0x10,%esp
c0101729:	c7 45 fc fd 03 00 00 	movl   $0x3fd,-0x4(%ebp)
c0101730:	8b 45 fc             	mov    -0x4(%ebp),%eax
c0101733:	89 c2                	mov    %eax,%edx
c0101735:	ec                   	in     (%dx),%al
c0101736:	88 45 fb             	mov    %al,-0x5(%ebp)
c0101739:	0f b6 45 fb          	movzbl -0x5(%ebp),%eax
c010173d:	0f b6 c0             	movzbl %al,%eax
c0101740:	83 e0 01             	and    $0x1,%eax
c0101743:	85 c0                	test   %eax,%eax
c0101745:	75 07                	jne    c010174e <serial_proc_data+0x2b>
c0101747:	b8 ff ff ff ff       	mov    $0xffffffff,%eax
c010174c:	eb 17                	jmp    c0101765 <serial_proc_data+0x42>
c010174e:	c7 45 f4 f8 03 00 00 	movl   $0x3f8,-0xc(%ebp)
c0101755:	8b 45 f4             	mov    -0xc(%ebp),%eax
c0101758:	89 c2                	mov    %eax,%edx
c010175a:	ec                   	in     (%dx),%al
c010175b:	88 45 f3             	mov    %al,-0xd(%ebp)
c010175e:	0f b6 45 f3          	movzbl -0xd(%ebp),%eax
c0101762:	0f b6 c0             	movzbl %al,%eax
c0101765:	c9                   	leave  
c0101766:	c3                   	ret    

c0101767 <serial_intr>:
c0101767:	55                   	push   %ebp
c0101768:	89 e5                	mov    %esp,%ebp
c010176a:	83 ec 08             	sub    $0x8,%esp
c010176d:	0f b6 05 40 50 11 c0 	movzbl 0xc0115040,%eax
c0101774:	84 c0                	test   %al,%al
c0101776:	74 10                	je     c0101788 <serial_intr+0x21>
c0101778:	83 ec 0c             	sub    $0xc,%esp
c010177b:	68 23 17 10 c0       	push   $0xc0101723
c0101780:	e8 d8 06 00 00       	call   c0101e5d <cons_intr>
c0101785:	83 c4 10             	add    $0x10,%esp
c0101788:	c9                   	leave  
c0101789:	c3                   	ret    

c010178a <serial_putc>:
c010178a:	55                   	push   %ebp
c010178b:	89 e5                	mov    %esp,%ebp
c010178d:	83 ec 20             	sub    $0x20,%esp
c0101790:	c7 45 fc 00 00 00 00 	movl   $0x0,-0x4(%ebp)
c0101797:	eb 09                	jmp    c01017a2 <serial_putc+0x18>
c0101799:	e8 3d ff ff ff       	call   c01016db <delay>
c010179e:	83 45 fc 01          	addl   $0x1,-0x4(%ebp)
c01017a2:	c7 45 f8 fd 03 00 00 	movl   $0x3fd,-0x8(%ebp)
c01017a9:	8b 45 f8             	mov    -0x8(%ebp),%eax
c01017ac:	89 c2                	mov    %eax,%edx
c01017ae:	ec                   	in     (%dx),%al
c01017af:	88 45 f7             	mov    %al,-0x9(%ebp)
c01017b2:	0f b6 45 f7          	movzbl -0x9(%ebp),%eax
c01017b6:	0f b6 c0             	movzbl %al,%eax
c01017b9:	83 e0 20             	and    $0x20,%eax
c01017bc:	85 c0                	test   %eax,%eax
c01017be:	75 09                	jne    c01017c9 <serial_putc+0x3f>
c01017c0:	81 7d fc ff 31 00 00 	cmpl   $0x31ff,-0x4(%ebp)
c01017c7:	7e d0                	jle    c0101799 <serial_putc+0xf>
c01017c9:	8b 45 08             	mov    0x8(%ebp),%eax
c01017cc:	0f b6 c0             	movzbl %al,%eax
c01017cf:	c7 45 f0 f8 03 00 00 	movl   $0x3f8,-0x10(%ebp)
c01017d6:	88 45 ef             	mov    %al,-0x11(%ebp)
c01017d9:	0f b6 45 ef          	movzbl -0x11(%ebp),%eax
c01017dd:	8b 55 f0             	mov    -0x10(%ebp),%edx
c01017e0:	ee                   	out    %al,(%dx)
c01017e1:	c9                   	leave  
c01017e2:	c3                   	ret    

c01017e3 <serial_init>:
c01017e3:	55                   	push   %ebp
c01017e4:	89 e5                	mov    %esp,%ebp
c01017e6:	83 ec 50             	sub    $0x50,%esp
c01017e9:	c7 45 fc fa 03 00 00 	movl   $0x3fa,-0x4(%ebp)
c01017f0:	c6 45 fb 00          	movb   $0x0,-0x5(%ebp)
c01017f4:	0f b6 45 fb          	movzbl -0x5(%ebp),%eax
c01017f8:	8b 55 fc             	mov    -0x4(%ebp),%edx
c01017fb:	ee                   	out    %al,(%dx)
c01017fc:	c7 45 f4 fb 03 00 00 	movl   $0x3fb,-0xc(%ebp)
c0101803:	c6 45 f3 80          	movb   $0x80,-0xd(%ebp)
c0101807:	0f b6 45 f3          	movzbl -0xd(%ebp),%eax
c010180b:	8b 55 f4             	mov    -0xc(%ebp),%edx
c010180e:	ee                   	out    %al,(%dx)
c010180f:	c7 45 ec f8 03 00 00 	movl   $0x3f8,-0x14(%ebp)
c0101816:	c6 45 eb 0c          	movb   $0xc,-0x15(%ebp)
c010181a:	0f b6 45 eb          	movzbl -0x15(%ebp),%eax
c010181e:	8b 55 ec             	mov    -0x14(%ebp),%edx
c0101821:	ee                   	out    %al,(%dx)
c0101822:	c7 45 e4 f9 03 00 00 	movl   $0x3f9,-0x1c(%ebp)
c0101829:	c6 45 e3 00          	movb   $0x0,-0x1d(%ebp)
c010182d:	0f b6 45 e3          	movzbl -0x1d(%ebp),%eax
c0101831:	8b 55 e4             	mov    -0x1c(%ebp),%edx
c0101834:	ee                   	out    %al,(%dx)
c0101835:	c7 45 dc fb 03 00 00 	movl   $0x3fb,-0x24(%ebp)
c010183c:	c6 45 db 03          	movb   $0x3,-0x25(%ebp)
c0101840:	0f b6 45 db          	movzbl -0x25(%ebp),%eax
c0101844:	8b 55 dc             	mov    -0x24(%ebp),%edx
c0101847:	ee                   	out    %al,(%dx)
c0101848:	c7 45 d4 fc 03 00 00 	movl   $0x3fc,-0x2c(%ebp)
c010184f:	c6 45 d3 00          	movb   $0x0,-0x2d(%ebp)
c0101853:	0f b6 45 d3          	movzbl -0x2d(%ebp),%eax
c0101857:	8b 55 d4             	mov    -0x2c(%ebp),%edx
c010185a:	ee                   	out    %al,(%dx)
c010185b:	c7 45 cc f9 03 00 00 	movl   $0x3f9,-0x34(%ebp)
c0101862:	c6 45 cb 01          	movb   $0x1,-0x35(%ebp)
c0101866:	0f b6 45 cb          	movzbl -0x35(%ebp),%eax
c010186a:	8b 55 cc             	mov    -0x34(%ebp),%edx
c010186d:	ee                   	out    %al,(%dx)
c010186e:	c7 45 c4 fd 03 00 00 	movl   $0x3fd,-0x3c(%ebp)
c0101875:	8b 45 c4             	mov    -0x3c(%ebp),%eax
c0101878:	89 c2                	mov    %eax,%edx
c010187a:	ec                   	in     (%dx),%al
c010187b:	88 45 c3             	mov    %al,-0x3d(%ebp)
c010187e:	0f b6 45 c3          	movzbl -0x3d(%ebp),%eax
c0101882:	3c ff                	cmp    $0xff,%al
c0101884:	0f 95 c0             	setne  %al
c0101887:	a2 40 50 11 c0       	mov    %al,0xc0115040
c010188c:	c7 45 bc fa 03 00 00 	movl   $0x3fa,-0x44(%ebp)
c0101893:	8b 45 bc             	mov    -0x44(%ebp),%eax
c0101896:	89 c2                	mov    %eax,%edx
c0101898:	ec                   	in     (%dx),%al
c0101899:	88 45 bb             	mov    %al,-0x45(%ebp)
c010189c:	c7 45 b4 f8 03 00 00 	movl   $0x3f8,-0x4c(%ebp)
c01018a3:	8b 45 b4             	mov    -0x4c(%ebp),%eax
c01018a6:	89 c2                	mov    %eax,%edx
c01018a8:	ec                   	in     (%dx),%al
c01018a9:	88 45 b3             	mov    %al,-0x4d(%ebp)
c01018ac:	c9                   	leave  
c01018ad:	c3                   	ret    

c01018ae <lpt_putc>:
c01018ae:	55                   	push   %ebp
c01018af:	89 e5                	mov    %esp,%ebp
c01018b1:	83 ec 30             	sub    $0x30,%esp
c01018b4:	c7 45 fc 00 00 00 00 	movl   $0x0,-0x4(%ebp)
c01018bb:	eb 09                	jmp    c01018c6 <lpt_putc+0x18>
c01018bd:	e8 19 fe ff ff       	call   c01016db <delay>
c01018c2:	83 45 fc 01          	addl   $0x1,-0x4(%ebp)
c01018c6:	c7 45 f8 79 03 00 00 	movl   $0x379,-0x8(%ebp)
c01018cd:	8b 45 f8             	mov    -0x8(%ebp),%eax
c01018d0:	89 c2                	mov    %eax,%edx
c01018d2:	ec                   	in     (%dx),%al
c01018d3:	88 45 f7             	mov    %al,-0x9(%ebp)
c01018d6:	0f b6 45 f7          	movzbl -0x9(%ebp),%eax
c01018da:	84 c0                	test   %al,%al
c01018dc:	78 09                	js     c01018e7 <lpt_putc+0x39>
c01018de:	81 7d fc ff 31 00 00 	cmpl   $0x31ff,-0x4(%ebp)
c01018e5:	7e d6                	jle    c01018bd <lpt_putc+0xf>
c01018e7:	8b 45 08             	mov    0x8(%ebp),%eax
c01018ea:	0f b6 c0             	movzbl %al,%eax
c01018ed:	c7 45 f0 78 03 00 00 	movl   $0x378,-0x10(%ebp)
c01018f4:	88 45 ef             	mov    %al,-0x11(%ebp)
c01018f7:	0f b6 45 ef          	movzbl -0x11(%ebp),%eax
c01018fb:	8b 55 f0             	mov    -0x10(%ebp),%edx
c01018fe:	ee                   	out    %al,(%dx)
c01018ff:	c7 45 e8 7a 03 00 00 	movl   $0x37a,-0x18(%ebp)
c0101906:	c6 45 e7 0d          	movb   $0xd,-0x19(%ebp)
c010190a:	0f b6 45 e7          	movzbl -0x19(%ebp),%eax
c010190e:	8b 55 e8             	mov    -0x18(%ebp),%edx
c0101911:	ee                   	out    %al,(%dx)
c0101912:	c7 45 e0 7a 03 00 00 	movl   $0x37a,-0x20(%ebp)
c0101919:	c6 45 df 08          	movb   $0x8,-0x21(%ebp)
c010191d:	0f b6 45 df          	movzbl -0x21(%ebp),%eax
c0101921:	8b 55 e0             	mov    -0x20(%ebp),%edx
c0101924:	ee                   	out    %al,(%dx)
c0101925:	c9                   	leave  
c0101926:	c3                   	ret    

c0101927 <cga_init>:
c0101927:	55                   	push   %ebp
c0101928:	89 e5                	mov    %esp,%ebp
c010192a:	83 ec 30             	sub    $0x30,%esp
c010192d:	c7 45 fc 00 80 0b c0 	movl   $0xc00b8000,-0x4(%ebp)
c0101934:	8b 45 fc             	mov    -0x4(%ebp),%eax
c0101937:	0f b7 00             	movzwl (%eax),%eax
c010193a:	66 89 45 fa          	mov    %ax,-0x6(%ebp)
c010193e:	8b 45 fc             	mov    -0x4(%ebp),%eax
c0101941:	66 c7 00 5a a5       	movw   $0xa55a,(%eax)
c0101946:	8b 45 fc             	mov    -0x4(%ebp),%eax
c0101949:	0f b7 00             	movzwl (%eax),%eax
c010194c:	66 3d 5a a5          	cmp    $0xa55a,%ax
c0101950:	74 13                	je     c0101965 <cga_init+0x3e>
c0101952:	c7 45 fc 00 00 0b c0 	movl   $0xc00b0000,-0x4(%ebp)
c0101959:	c7 05 44 50 11 c0 b4 	movl   $0x3b4,0xc0115044
c0101960:	03 00 00 
c0101963:	eb 14                	jmp    c0101979 <cga_init+0x52>
c0101965:	8b 45 fc             	mov    -0x4(%ebp),%eax
c0101968:	0f b7 55 fa          	movzwl -0x6(%ebp),%edx
c010196c:	66 89 10             	mov    %dx,(%eax)
c010196f:	c7 05 44 50 11 c0 d4 	movl   $0x3d4,0xc0115044
c0101976:	03 00 00 
c0101979:	a1 44 50 11 c0       	mov    0xc0115044,%eax
c010197e:	89 45 f0             	mov    %eax,-0x10(%ebp)
c0101981:	c6 45 ef 0e          	movb   $0xe,-0x11(%ebp)
c0101985:	0f b6 45 ef          	movzbl -0x11(%ebp),%eax
c0101989:	8b 55 f0             	mov    -0x10(%ebp),%edx
c010198c:	ee                   	out    %al,(%dx)
c010198d:	a1 44 50 11 c0       	mov    0xc0115044,%eax
c0101992:	83 c0 01             	add    $0x1,%eax
c0101995:	89 45 e8             	mov    %eax,-0x18(%ebp)
c0101998:	8b 45 e8             	mov    -0x18(%ebp),%eax
c010199b:	89 c2                	mov    %eax,%edx
c010199d:	ec                   	in     (%dx),%al
c010199e:	88 45 e7             	mov    %al,-0x19(%ebp)
c01019a1:	0f b6 45 e7          	movzbl -0x19(%ebp),%eax
c01019a5:	0f b6 c0             	movzbl %al,%eax
c01019a8:	c1 e0 08             	shl    $0x8,%eax
c01019ab:	89 45 f4             	mov    %eax,-0xc(%ebp)
c01019ae:	a1 44 50 11 c0       	mov    0xc0115044,%eax
c01019b3:	89 45 e0             	mov    %eax,-0x20(%ebp)
c01019b6:	c6 45 df 0f          	movb   $0xf,-0x21(%ebp)
c01019ba:	0f b6 45 df          	movzbl -0x21(%ebp),%eax
c01019be:	8b 55 e0             	mov    -0x20(%ebp),%edx
c01019c1:	ee                   	out    %al,(%dx)
c01019c2:	a1 44 50 11 c0       	mov    0xc0115044,%eax
c01019c7:	83 c0 01             	add    $0x1,%eax
c01019ca:	89 45 d8             	mov    %eax,-0x28(%ebp)
c01019cd:	8b 45 d8             	mov    -0x28(%ebp),%eax
c01019d0:	89 c2                	mov    %eax,%edx
c01019d2:	ec                   	in     (%dx),%al
c01019d3:	88 45 d7             	mov    %al,-0x29(%ebp)
c01019d6:	0f b6 45 d7          	movzbl -0x29(%ebp),%eax
c01019da:	0f b6 c0             	movzbl %al,%eax
c01019dd:	09 45 f4             	or     %eax,-0xc(%ebp)
c01019e0:	8b 45 fc             	mov    -0x4(%ebp),%eax
c01019e3:	a3 48 50 11 c0       	mov    %eax,0xc0115048
c01019e8:	8b 45 f4             	mov    -0xc(%ebp),%eax
c01019eb:	66 a3 4c 50 11 c0    	mov    %ax,0xc011504c
c01019f1:	c9                   	leave  
c01019f2:	c3                   	ret    

c01019f3 <cga_putc>:
c01019f3:	55                   	push   %ebp
c01019f4:	89 e5                	mov    %esp,%ebp
c01019f6:	53                   	push   %ebx
c01019f7:	83 ec 34             	sub    $0x34,%esp
c01019fa:	8b 45 08             	mov    0x8(%ebp),%eax
c01019fd:	b0 00                	mov    $0x0,%al
c01019ff:	85 c0                	test   %eax,%eax
c0101a01:	75 07                	jne    c0101a0a <cga_putc+0x17>
c0101a03:	81 4d 08 00 07 00 00 	orl    $0x700,0x8(%ebp)
c0101a0a:	8b 45 08             	mov    0x8(%ebp),%eax
c0101a0d:	0f b6 c0             	movzbl %al,%eax
c0101a10:	83 f8 09             	cmp    $0x9,%eax
c0101a13:	0f 84 ac 00 00 00    	je     c0101ac5 <cga_putc+0xd2>
c0101a19:	83 f8 09             	cmp    $0x9,%eax
c0101a1c:	7f 0a                	jg     c0101a28 <cga_putc+0x35>
c0101a1e:	83 f8 08             	cmp    $0x8,%eax
c0101a21:	74 14                	je     c0101a37 <cga_putc+0x44>
c0101a23:	e9 e0 00 00 00       	jmp    c0101b08 <cga_putc+0x115>
c0101a28:	83 f8 0a             	cmp    $0xa,%eax
c0101a2b:	74 4e                	je     c0101a7b <cga_putc+0x88>
c0101a2d:	83 f8 0d             	cmp    $0xd,%eax
c0101a30:	74 59                	je     c0101a8b <cga_putc+0x98>
c0101a32:	e9 d1 00 00 00       	jmp    c0101b08 <cga_putc+0x115>
c0101a37:	0f b7 05 4c 50 11 c0 	movzwl 0xc011504c,%eax
c0101a3e:	66 85 c0             	test   %ax,%ax
c0101a41:	74 33                	je     c0101a76 <cga_putc+0x83>
c0101a43:	0f b7 05 4c 50 11 c0 	movzwl 0xc011504c,%eax
c0101a4a:	83 e8 01             	sub    $0x1,%eax
c0101a4d:	66 a3 4c 50 11 c0    	mov    %ax,0xc011504c
c0101a53:	a1 48 50 11 c0       	mov    0xc0115048,%eax
c0101a58:	0f b7 15 4c 50 11 c0 	movzwl 0xc011504c,%edx
c0101a5f:	0f b7 d2             	movzwl %dx,%edx
c0101a62:	01 d2                	add    %edx,%edx
c0101a64:	01 d0                	add    %edx,%eax
c0101a66:	8b 55 08             	mov    0x8(%ebp),%edx
c0101a69:	b2 00                	mov    $0x0,%dl
c0101a6b:	83 ca 20             	or     $0x20,%edx
c0101a6e:	66 89 10             	mov    %dx,(%eax)
c0101a71:	e9 b7 00 00 00       	jmp    c0101b2d <cga_putc+0x13a>
c0101a76:	e9 b2 00 00 00       	jmp    c0101b2d <cga_putc+0x13a>
c0101a7b:	0f b7 05 4c 50 11 c0 	movzwl 0xc011504c,%eax
c0101a82:	83 c0 50             	add    $0x50,%eax
c0101a85:	66 a3 4c 50 11 c0    	mov    %ax,0xc011504c
c0101a8b:	0f b7 1d 4c 50 11 c0 	movzwl 0xc011504c,%ebx
c0101a92:	0f b7 0d 4c 50 11 c0 	movzwl 0xc011504c,%ecx
c0101a99:	0f b7 c1             	movzwl %cx,%eax
c0101a9c:	69 c0 cd cc 00 00    	imul   $0xcccd,%eax,%eax
c0101aa2:	c1 e8 10             	shr    $0x10,%eax
c0101aa5:	89 c2                	mov    %eax,%edx
c0101aa7:	66 c1 ea 06          	shr    $0x6,%dx
c0101aab:	89 d0                	mov    %edx,%eax
c0101aad:	c1 e0 02             	shl    $0x2,%eax
c0101ab0:	01 d0                	add    %edx,%eax
c0101ab2:	c1 e0 04             	shl    $0x4,%eax
c0101ab5:	29 c1                	sub    %eax,%ecx
c0101ab7:	89 ca                	mov    %ecx,%edx
c0101ab9:	89 d8                	mov    %ebx,%eax
c0101abb:	29 d0                	sub    %edx,%eax
c0101abd:	66 a3 4c 50 11 c0    	mov    %ax,0xc011504c
c0101ac3:	eb 68                	jmp    c0101b2d <cga_putc+0x13a>
c0101ac5:	83 ec 0c             	sub    $0xc,%esp
c0101ac8:	6a 20                	push   $0x20
c0101aca:	e8 37 04 00 00       	call   c0101f06 <cons_putc>
c0101acf:	83 c4 10             	add    $0x10,%esp
c0101ad2:	83 ec 0c             	sub    $0xc,%esp
c0101ad5:	6a 20                	push   $0x20
c0101ad7:	e8 2a 04 00 00       	call   c0101f06 <cons_putc>
c0101adc:	83 c4 10             	add    $0x10,%esp
c0101adf:	83 ec 0c             	sub    $0xc,%esp
c0101ae2:	6a 20                	push   $0x20
c0101ae4:	e8 1d 04 00 00       	call   c0101f06 <cons_putc>
c0101ae9:	83 c4 10             	add    $0x10,%esp
c0101aec:	83 ec 0c             	sub    $0xc,%esp
c0101aef:	6a 20                	push   $0x20
c0101af1:	e8 10 04 00 00       	call   c0101f06 <cons_putc>
c0101af6:	83 c4 10             	add    $0x10,%esp
c0101af9:	83 ec 0c             	sub    $0xc,%esp
c0101afc:	6a 20                	push   $0x20
c0101afe:	e8 03 04 00 00       	call   c0101f06 <cons_putc>
c0101b03:	83 c4 10             	add    $0x10,%esp
c0101b06:	eb 25                	jmp    c0101b2d <cga_putc+0x13a>
c0101b08:	8b 0d 48 50 11 c0    	mov    0xc0115048,%ecx
c0101b0e:	0f b7 05 4c 50 11 c0 	movzwl 0xc011504c,%eax
c0101b15:	8d 50 01             	lea    0x1(%eax),%edx
c0101b18:	66 89 15 4c 50 11 c0 	mov    %dx,0xc011504c
c0101b1f:	0f b7 c0             	movzwl %ax,%eax
c0101b22:	01 c0                	add    %eax,%eax
c0101b24:	01 c8                	add    %ecx,%eax
c0101b26:	8b 55 08             	mov    0x8(%ebp),%edx
c0101b29:	66 89 10             	mov    %dx,(%eax)
c0101b2c:	90                   	nop
c0101b2d:	0f b7 05 4c 50 11 c0 	movzwl 0xc011504c,%eax
c0101b34:	66 3d cf 07          	cmp    $0x7cf,%ax
c0101b38:	76 59                	jbe    c0101b93 <cga_putc+0x1a0>
c0101b3a:	a1 48 50 11 c0       	mov    0xc0115048,%eax
c0101b3f:	8d 90 a0 00 00 00    	lea    0xa0(%eax),%edx
c0101b45:	a1 48 50 11 c0       	mov    0xc0115048,%eax
c0101b4a:	83 ec 04             	sub    $0x4,%esp
c0101b4d:	68 00 0f 00 00       	push   $0xf00
c0101b52:	52                   	push   %edx
c0101b53:	50                   	push   %eax
c0101b54:	e8 f4 07 00 00       	call   c010234d <memmove>
c0101b59:	83 c4 10             	add    $0x10,%esp
c0101b5c:	c7 45 f4 80 07 00 00 	movl   $0x780,-0xc(%ebp)
c0101b63:	eb 15                	jmp    c0101b7a <cga_putc+0x187>
c0101b65:	a1 48 50 11 c0       	mov    0xc0115048,%eax
c0101b6a:	8b 55 f4             	mov    -0xc(%ebp),%edx
c0101b6d:	01 d2                	add    %edx,%edx
c0101b6f:	01 d0                	add    %edx,%eax
c0101b71:	66 c7 00 20 07       	movw   $0x720,(%eax)
c0101b76:	83 45 f4 01          	addl   $0x1,-0xc(%ebp)
c0101b7a:	81 7d f4 cf 07 00 00 	cmpl   $0x7cf,-0xc(%ebp)
c0101b81:	7e e2                	jle    c0101b65 <cga_putc+0x172>
c0101b83:	0f b7 05 4c 50 11 c0 	movzwl 0xc011504c,%eax
c0101b8a:	83 e8 50             	sub    $0x50,%eax
c0101b8d:	66 a3 4c 50 11 c0    	mov    %ax,0xc011504c
c0101b93:	a1 44 50 11 c0       	mov    0xc0115044,%eax
c0101b98:	89 45 f0             	mov    %eax,-0x10(%ebp)
c0101b9b:	c6 45 ef 0e          	movb   $0xe,-0x11(%ebp)
c0101b9f:	0f b6 45 ef          	movzbl -0x11(%ebp),%eax
c0101ba3:	8b 55 f0             	mov    -0x10(%ebp),%edx
c0101ba6:	ee                   	out    %al,(%dx)
c0101ba7:	0f b7 05 4c 50 11 c0 	movzwl 0xc011504c,%eax
c0101bae:	66 c1 e8 08          	shr    $0x8,%ax
c0101bb2:	0f b6 c0             	movzbl %al,%eax
c0101bb5:	8b 15 44 50 11 c0    	mov    0xc0115044,%edx
c0101bbb:	83 c2 01             	add    $0x1,%edx
c0101bbe:	89 55 e8             	mov    %edx,-0x18(%ebp)
c0101bc1:	88 45 e7             	mov    %al,-0x19(%ebp)
c0101bc4:	0f b6 45 e7          	movzbl -0x19(%ebp),%eax
c0101bc8:	8b 55 e8             	mov    -0x18(%ebp),%edx
c0101bcb:	ee                   	out    %al,(%dx)
c0101bcc:	a1 44 50 11 c0       	mov    0xc0115044,%eax
c0101bd1:	89 45 e0             	mov    %eax,-0x20(%ebp)
c0101bd4:	c6 45 df 0f          	movb   $0xf,-0x21(%ebp)
c0101bd8:	0f b6 45 df          	movzbl -0x21(%ebp),%eax
c0101bdc:	8b 55 e0             	mov    -0x20(%ebp),%edx
c0101bdf:	ee                   	out    %al,(%dx)
c0101be0:	0f b7 05 4c 50 11 c0 	movzwl 0xc011504c,%eax
c0101be7:	0f b6 c0             	movzbl %al,%eax
c0101bea:	8b 15 44 50 11 c0    	mov    0xc0115044,%edx
c0101bf0:	83 c2 01             	add    $0x1,%edx
c0101bf3:	89 55 d8             	mov    %edx,-0x28(%ebp)
c0101bf6:	88 45 d7             	mov    %al,-0x29(%ebp)
c0101bf9:	0f b6 45 d7          	movzbl -0x29(%ebp),%eax
c0101bfd:	8b 55 d8             	mov    -0x28(%ebp),%edx
c0101c00:	ee                   	out    %al,(%dx)
c0101c01:	8b 5d fc             	mov    -0x4(%ebp),%ebx
c0101c04:	c9                   	leave  
c0101c05:	c3                   	ret    

c0101c06 <kbd_proc_data>:
c0101c06:	55                   	push   %ebp
c0101c07:	89 e5                	mov    %esp,%ebp
c0101c09:	83 ec 38             	sub    $0x38,%esp
c0101c0c:	c7 45 e4 64 00 00 00 	movl   $0x64,-0x1c(%ebp)
c0101c13:	8b 45 e4             	mov    -0x1c(%ebp),%eax
c0101c16:	89 c2                	mov    %eax,%edx
c0101c18:	ec                   	in     (%dx),%al
c0101c19:	88 45 e3             	mov    %al,-0x1d(%ebp)
c0101c1c:	0f b6 45 e3          	movzbl -0x1d(%ebp),%eax
c0101c20:	0f b6 c0             	movzbl %al,%eax
c0101c23:	83 e0 01             	and    $0x1,%eax
c0101c26:	85 c0                	test   %eax,%eax
c0101c28:	75 0a                	jne    c0101c34 <kbd_proc_data+0x2e>
c0101c2a:	b8 ff ff ff ff       	mov    $0xffffffff,%eax
c0101c2f:	e9 0a 02 00 00       	jmp    c0101e3e <kbd_proc_data+0x238>
c0101c34:	c7 45 dc 60 00 00 00 	movl   $0x60,-0x24(%ebp)
c0101c3b:	8b 45 dc             	mov    -0x24(%ebp),%eax
c0101c3e:	89 c2                	mov    %eax,%edx
c0101c40:	ec                   	in     (%dx),%al
c0101c41:	88 45 db             	mov    %al,-0x25(%ebp)
c0101c44:	0f b6 45 db          	movzbl -0x25(%ebp),%eax
c0101c48:	88 45 f3             	mov    %al,-0xd(%ebp)
c0101c4b:	80 7d f3 00          	cmpb   $0x0,-0xd(%ebp)
c0101c4f:	74 06                	je     c0101c57 <kbd_proc_data+0x51>
c0101c51:	80 7d f3 08          	cmpb   $0x8,-0xd(%ebp)
c0101c55:	75 0a                	jne    c0101c61 <kbd_proc_data+0x5b>
c0101c57:	b8 00 00 00 00       	mov    $0x0,%eax
c0101c5c:	e9 dd 01 00 00       	jmp    c0101e3e <kbd_proc_data+0x238>
c0101c61:	80 7d f3 e0          	cmpb   $0xe0,-0xd(%ebp)
c0101c65:	75 17                	jne    c0101c7e <kbd_proc_data+0x78>
c0101c67:	a1 88 52 11 c0       	mov    0xc0115288,%eax
c0101c6c:	83 c8 40             	or     $0x40,%eax
c0101c6f:	a3 88 52 11 c0       	mov    %eax,0xc0115288
c0101c74:	b8 00 00 00 00       	mov    $0x0,%eax
c0101c79:	e9 c0 01 00 00       	jmp    c0101e3e <kbd_proc_data+0x238>
c0101c7e:	0f b6 45 f3          	movzbl -0xd(%ebp),%eax
c0101c82:	84 c0                	test   %al,%al
c0101c84:	79 47                	jns    c0101ccd <kbd_proc_data+0xc7>
c0101c86:	a1 88 52 11 c0       	mov    0xc0115288,%eax
c0101c8b:	83 e0 40             	and    $0x40,%eax
c0101c8e:	85 c0                	test   %eax,%eax
c0101c90:	75 09                	jne    c0101c9b <kbd_proc_data+0x95>
c0101c92:	0f b6 45 f3          	movzbl -0xd(%ebp),%eax
c0101c96:	83 e0 7f             	and    $0x7f,%eax
c0101c99:	eb 04                	jmp    c0101c9f <kbd_proc_data+0x99>
c0101c9b:	0f b6 45 f3          	movzbl -0xd(%ebp),%eax
c0101c9f:	88 45 f3             	mov    %al,-0xd(%ebp)
c0101ca2:	0f b6 45 f3          	movzbl -0xd(%ebp),%eax
c0101ca6:	0f b6 80 80 90 10 c0 	movzbl -0x3fef6f80(%eax),%eax
c0101cad:	83 c8 40             	or     $0x40,%eax
c0101cb0:	0f b6 c0             	movzbl %al,%eax
c0101cb3:	f7 d0                	not    %eax
c0101cb5:	89 c2                	mov    %eax,%edx
c0101cb7:	a1 88 52 11 c0       	mov    0xc0115288,%eax
c0101cbc:	21 d0                	and    %edx,%eax
c0101cbe:	a3 88 52 11 c0       	mov    %eax,0xc0115288
c0101cc3:	b8 00 00 00 00       	mov    $0x0,%eax
c0101cc8:	e9 71 01 00 00       	jmp    c0101e3e <kbd_proc_data+0x238>
c0101ccd:	a1 88 52 11 c0       	mov    0xc0115288,%eax
c0101cd2:	83 e0 40             	and    $0x40,%eax
c0101cd5:	85 c0                	test   %eax,%eax
c0101cd7:	74 11                	je     c0101cea <kbd_proc_data+0xe4>
c0101cd9:	80 4d f3 80          	orb    $0x80,-0xd(%ebp)
c0101cdd:	a1 88 52 11 c0       	mov    0xc0115288,%eax
c0101ce2:	83 e0 bf             	and    $0xffffffbf,%eax
c0101ce5:	a3 88 52 11 c0       	mov    %eax,0xc0115288
c0101cea:	0f b6 45 f3          	movzbl -0xd(%ebp),%eax
c0101cee:	0f b6 80 80 90 10 c0 	movzbl -0x3fef6f80(%eax),%eax
c0101cf5:	0f b6 d0             	movzbl %al,%edx
c0101cf8:	a1 88 52 11 c0       	mov    0xc0115288,%eax
c0101cfd:	09 d0                	or     %edx,%eax
c0101cff:	a3 88 52 11 c0       	mov    %eax,0xc0115288
c0101d04:	0f b6 45 f3          	movzbl -0xd(%ebp),%eax
c0101d08:	0f b6 80 80 91 10 c0 	movzbl -0x3fef6e80(%eax),%eax
c0101d0f:	0f b6 d0             	movzbl %al,%edx
c0101d12:	a1 88 52 11 c0       	mov    0xc0115288,%eax
c0101d17:	31 d0                	xor    %edx,%eax
c0101d19:	a3 88 52 11 c0       	mov    %eax,0xc0115288
c0101d1e:	a1 88 52 11 c0       	mov    0xc0115288,%eax
c0101d23:	83 e0 03             	and    $0x3,%eax
c0101d26:	8b 14 85 80 95 10 c0 	mov    -0x3fef6a80(,%eax,4),%edx
c0101d2d:	0f b6 45 f3          	movzbl -0xd(%ebp),%eax
c0101d31:	01 d0                	add    %edx,%eax
c0101d33:	0f b6 00             	movzbl (%eax),%eax
c0101d36:	0f b6 c0             	movzbl %al,%eax
c0101d39:	89 45 f4             	mov    %eax,-0xc(%ebp)
c0101d3c:	a1 88 52 11 c0       	mov    0xc0115288,%eax
c0101d41:	83 e0 02             	and    $0x2,%eax
c0101d44:	85 c0                	test   %eax,%eax
c0101d46:	0f 84 97 00 00 00    	je     c0101de3 <kbd_proc_data+0x1dd>
c0101d4c:	80 7d f3 2e          	cmpb   $0x2e,-0xd(%ebp)
c0101d50:	0f 85 8d 00 00 00    	jne    c0101de3 <kbd_proc_data+0x1dd>
c0101d56:	c6 45 f2 00          	movb   $0x0,-0xe(%ebp)
c0101d5a:	c7 45 ec 00 00 00 00 	movl   $0x0,-0x14(%ebp)
c0101d61:	c7 45 ec 00 00 00 00 	movl   $0x0,-0x14(%ebp)
c0101d68:	eb 42                	jmp    c0101dac <kbd_proc_data+0x1a6>
c0101d6a:	8b 15 40 57 11 c0    	mov    0xc0115740,%edx
c0101d70:	8b 45 ec             	mov    -0x14(%ebp),%eax
c0101d73:	c1 e0 04             	shl    $0x4,%eax
c0101d76:	89 c1                	mov    %eax,%ecx
c0101d78:	c1 e1 04             	shl    $0x4,%ecx
c0101d7b:	29 c1                	sub    %eax,%ecx
c0101d7d:	89 c8                	mov    %ecx,%eax
c0101d7f:	01 d0                	add    %edx,%eax
c0101d81:	89 45 e8             	mov    %eax,-0x18(%ebp)
c0101d84:	8b 45 e8             	mov    -0x18(%ebp),%eax
c0101d87:	8b 40 58             	mov    0x58(%eax),%eax
c0101d8a:	83 f8 02             	cmp    $0x2,%eax
c0101d8d:	74 0b                	je     c0101d9a <kbd_proc_data+0x194>
c0101d8f:	8b 45 e8             	mov    -0x18(%ebp),%eax
c0101d92:	8b 40 58             	mov    0x58(%eax),%eax
c0101d95:	83 f8 01             	cmp    $0x1,%eax
c0101d98:	75 04                	jne    c0101d9e <kbd_proc_data+0x198>
c0101d9a:	c6 45 f2 01          	movb   $0x1,-0xe(%ebp)
c0101d9e:	8b 45 e8             	mov    -0x18(%ebp),%eax
c0101da1:	c7 40 58 00 00 00 00 	movl   $0x0,0x58(%eax)
c0101da8:	83 45 ec 01          	addl   $0x1,-0x14(%ebp)
c0101dac:	83 7d ec 1e          	cmpl   $0x1e,-0x14(%ebp)
c0101db0:	7e b8                	jle    c0101d6a <kbd_proc_data+0x164>
c0101db2:	80 7d f2 00          	cmpb   $0x0,-0xe(%ebp)
c0101db6:	74 24                	je     c0101ddc <kbd_proc_data+0x1d6>
c0101db8:	c7 05 04 50 11 c0 00 	movl   $0x400,0xc0115004
c0101dbf:	04 00 00 
c0101dc2:	83 ec 0c             	sub    $0xc,%esp
c0101dc5:	68 3c 70 10 c0       	push   $0xc010703c
c0101dca:	e8 e6 f8 ff ff       	call   c01016b5 <cprintf>
c0101dcf:	83 c4 10             	add    $0x10,%esp
c0101dd2:	c7 05 04 50 11 c0 00 	movl   $0x0,0xc0115004
c0101dd9:	00 00 00 
c0101ddc:	b8 ff ff ff ff       	mov    $0xffffffff,%eax
c0101de1:	eb 5b                	jmp    c0101e3e <kbd_proc_data+0x238>
c0101de3:	a1 88 52 11 c0       	mov    0xc0115288,%eax
c0101de8:	83 e0 08             	and    $0x8,%eax
c0101deb:	85 c0                	test   %eax,%eax
c0101ded:	74 22                	je     c0101e11 <kbd_proc_data+0x20b>
c0101def:	83 7d f4 60          	cmpl   $0x60,-0xc(%ebp)
c0101df3:	7e 0c                	jle    c0101e01 <kbd_proc_data+0x1fb>
c0101df5:	83 7d f4 7a          	cmpl   $0x7a,-0xc(%ebp)
c0101df9:	7f 06                	jg     c0101e01 <kbd_proc_data+0x1fb>
c0101dfb:	83 6d f4 20          	subl   $0x20,-0xc(%ebp)
c0101dff:	eb 10                	jmp    c0101e11 <kbd_proc_data+0x20b>
c0101e01:	83 7d f4 40          	cmpl   $0x40,-0xc(%ebp)
c0101e05:	7e 0a                	jle    c0101e11 <kbd_proc_data+0x20b>
c0101e07:	83 7d f4 5a          	cmpl   $0x5a,-0xc(%ebp)
c0101e0b:	7f 04                	jg     c0101e11 <kbd_proc_data+0x20b>
c0101e0d:	83 45 f4 20          	addl   $0x20,-0xc(%ebp)
c0101e11:	a1 88 52 11 c0       	mov    0xc0115288,%eax
c0101e16:	f7 d0                	not    %eax
c0101e18:	83 e0 06             	and    $0x6,%eax
c0101e1b:	85 c0                	test   %eax,%eax
c0101e1d:	75 1c                	jne    c0101e3b <kbd_proc_data+0x235>
c0101e1f:	81 7d f4 e9 00 00 00 	cmpl   $0xe9,-0xc(%ebp)
c0101e26:	75 13                	jne    c0101e3b <kbd_proc_data+0x235>
c0101e28:	c7 45 d4 92 00 00 00 	movl   $0x92,-0x2c(%ebp)
c0101e2f:	c6 45 d3 03          	movb   $0x3,-0x2d(%ebp)
c0101e33:	0f b6 45 d3          	movzbl -0x2d(%ebp),%eax
c0101e37:	8b 55 d4             	mov    -0x2c(%ebp),%edx
c0101e3a:	ee                   	out    %al,(%dx)
c0101e3b:	8b 45 f4             	mov    -0xc(%ebp),%eax
c0101e3e:	c9                   	leave  
c0101e3f:	c3                   	ret    

c0101e40 <kbd_intr>:
c0101e40:	55                   	push   %ebp
c0101e41:	89 e5                	mov    %esp,%ebp
c0101e43:	83 ec 08             	sub    $0x8,%esp
c0101e46:	83 ec 0c             	sub    $0xc,%esp
c0101e49:	68 06 1c 10 c0       	push   $0xc0101c06
c0101e4e:	e8 0a 00 00 00       	call   c0101e5d <cons_intr>
c0101e53:	83 c4 10             	add    $0x10,%esp
c0101e56:	c9                   	leave  
c0101e57:	c3                   	ret    

c0101e58 <kbd_init>:
c0101e58:	55                   	push   %ebp
c0101e59:	89 e5                	mov    %esp,%ebp
c0101e5b:	5d                   	pop    %ebp
c0101e5c:	c3                   	ret    

c0101e5d <cons_intr>:
c0101e5d:	55                   	push   %ebp
c0101e5e:	89 e5                	mov    %esp,%ebp
c0101e60:	83 ec 18             	sub    $0x18,%esp
c0101e63:	eb 35                	jmp    c0101e9a <cons_intr+0x3d>
c0101e65:	83 7d f4 00          	cmpl   $0x0,-0xc(%ebp)
c0101e69:	75 02                	jne    c0101e6d <cons_intr+0x10>
c0101e6b:	eb 2d                	jmp    c0101e9a <cons_intr+0x3d>
c0101e6d:	a1 84 52 11 c0       	mov    0xc0115284,%eax
c0101e72:	8d 50 01             	lea    0x1(%eax),%edx
c0101e75:	89 15 84 52 11 c0    	mov    %edx,0xc0115284
c0101e7b:	8b 55 f4             	mov    -0xc(%ebp),%edx
c0101e7e:	88 90 80 50 11 c0    	mov    %dl,-0x3feeaf80(%eax)
c0101e84:	a1 84 52 11 c0       	mov    0xc0115284,%eax
c0101e89:	3d 00 02 00 00       	cmp    $0x200,%eax
c0101e8e:	75 0a                	jne    c0101e9a <cons_intr+0x3d>
c0101e90:	c7 05 84 52 11 c0 00 	movl   $0x0,0xc0115284
c0101e97:	00 00 00 
c0101e9a:	8b 45 08             	mov    0x8(%ebp),%eax
c0101e9d:	ff d0                	call   *%eax
c0101e9f:	89 45 f4             	mov    %eax,-0xc(%ebp)
c0101ea2:	83 7d f4 ff          	cmpl   $0xffffffff,-0xc(%ebp)
c0101ea6:	75 bd                	jne    c0101e65 <cons_intr+0x8>
c0101ea8:	c9                   	leave  
c0101ea9:	c3                   	ret    

c0101eaa <cons_getc>:
c0101eaa:	55                   	push   %ebp
c0101eab:	89 e5                	mov    %esp,%ebp
c0101ead:	83 ec 18             	sub    $0x18,%esp
c0101eb0:	e8 b2 f8 ff ff       	call   c0101767 <serial_intr>
c0101eb5:	e8 86 ff ff ff       	call   c0101e40 <kbd_intr>
c0101eba:	8b 15 80 52 11 c0    	mov    0xc0115280,%edx
c0101ec0:	a1 84 52 11 c0       	mov    0xc0115284,%eax
c0101ec5:	39 c2                	cmp    %eax,%edx
c0101ec7:	74 36                	je     c0101eff <cons_getc+0x55>
c0101ec9:	a1 80 52 11 c0       	mov    0xc0115280,%eax
c0101ece:	8d 50 01             	lea    0x1(%eax),%edx
c0101ed1:	89 15 80 52 11 c0    	mov    %edx,0xc0115280
c0101ed7:	0f b6 80 80 50 11 c0 	movzbl -0x3feeaf80(%eax),%eax
c0101ede:	0f b6 c0             	movzbl %al,%eax
c0101ee1:	89 45 f4             	mov    %eax,-0xc(%ebp)
c0101ee4:	a1 80 52 11 c0       	mov    0xc0115280,%eax
c0101ee9:	3d 00 02 00 00       	cmp    $0x200,%eax
c0101eee:	75 0a                	jne    c0101efa <cons_getc+0x50>
c0101ef0:	c7 05 80 52 11 c0 00 	movl   $0x0,0xc0115280
c0101ef7:	00 00 00 
c0101efa:	8b 45 f4             	mov    -0xc(%ebp),%eax
c0101efd:	eb 05                	jmp    c0101f04 <cons_getc+0x5a>
c0101eff:	b8 00 00 00 00       	mov    $0x0,%eax
c0101f04:	c9                   	leave  
c0101f05:	c3                   	ret    

c0101f06 <cons_putc>:
c0101f06:	55                   	push   %ebp
c0101f07:	89 e5                	mov    %esp,%ebp
c0101f09:	83 ec 08             	sub    $0x8,%esp
c0101f0c:	ff 75 08             	pushl  0x8(%ebp)
c0101f0f:	e8 76 f8 ff ff       	call   c010178a <serial_putc>
c0101f14:	83 c4 04             	add    $0x4,%esp
c0101f17:	ff 75 08             	pushl  0x8(%ebp)
c0101f1a:	e8 8f f9 ff ff       	call   c01018ae <lpt_putc>
c0101f1f:	83 c4 04             	add    $0x4,%esp
c0101f22:	83 ec 0c             	sub    $0xc,%esp
c0101f25:	ff 75 08             	pushl  0x8(%ebp)
c0101f28:	e8 c6 fa ff ff       	call   c01019f3 <cga_putc>
c0101f2d:	83 c4 10             	add    $0x10,%esp
c0101f30:	c9                   	leave  
c0101f31:	c3                   	ret    

c0101f32 <cons_init>:
c0101f32:	55                   	push   %ebp
c0101f33:	89 e5                	mov    %esp,%ebp
c0101f35:	83 ec 08             	sub    $0x8,%esp
c0101f38:	e8 ea f9 ff ff       	call   c0101927 <cga_init>
c0101f3d:	e8 16 ff ff ff       	call   c0101e58 <kbd_init>
c0101f42:	e8 9c f8 ff ff       	call   c01017e3 <serial_init>
c0101f47:	0f b6 05 40 50 11 c0 	movzbl 0xc0115040,%eax
c0101f4e:	83 f0 01             	xor    $0x1,%eax
c0101f51:	84 c0                	test   %al,%al
c0101f53:	74 10                	je     c0101f65 <cons_init+0x33>
c0101f55:	83 ec 0c             	sub    $0xc,%esp
c0101f58:	68 5a 70 10 c0       	push   $0xc010705a
c0101f5d:	e8 53 f7 ff ff       	call   c01016b5 <cprintf>
c0101f62:	83 c4 10             	add    $0x10,%esp
c0101f65:	c9                   	leave  
c0101f66:	c3                   	ret    

c0101f67 <cputchar>:
c0101f67:	55                   	push   %ebp
c0101f68:	89 e5                	mov    %esp,%ebp
c0101f6a:	83 ec 08             	sub    $0x8,%esp
c0101f6d:	83 ec 0c             	sub    $0xc,%esp
c0101f70:	ff 75 08             	pushl  0x8(%ebp)
c0101f73:	e8 8e ff ff ff       	call   c0101f06 <cons_putc>
c0101f78:	83 c4 10             	add    $0x10,%esp
c0101f7b:	c9                   	leave  
c0101f7c:	c3                   	ret    

c0101f7d <getchar>:
c0101f7d:	55                   	push   %ebp
c0101f7e:	89 e5                	mov    %esp,%ebp
c0101f80:	83 ec 18             	sub    $0x18,%esp
c0101f83:	e8 22 ff ff ff       	call   c0101eaa <cons_getc>
c0101f88:	89 45 f4             	mov    %eax,-0xc(%ebp)
c0101f8b:	83 7d f4 00          	cmpl   $0x0,-0xc(%ebp)
c0101f8f:	74 f2                	je     c0101f83 <getchar+0x6>
c0101f91:	8b 45 f4             	mov    -0xc(%ebp),%eax
c0101f94:	c9                   	leave  
c0101f95:	c3                   	ret    

c0101f96 <iscons>:
c0101f96:	55                   	push   %ebp
c0101f97:	89 e5                	mov    %esp,%ebp
c0101f99:	b8 01 00 00 00       	mov    $0x1,%eax
c0101f9e:	5d                   	pop    %ebp
c0101f9f:	c3                   	ret    

c0101fa0 <readline>:
c0101fa0:	55                   	push   %ebp
c0101fa1:	89 e5                	mov    %esp,%ebp
c0101fa3:	83 ec 18             	sub    $0x18,%esp
c0101fa6:	83 7d 08 00          	cmpl   $0x0,0x8(%ebp)
c0101faa:	74 13                	je     c0101fbf <readline+0x1f>
c0101fac:	83 ec 08             	sub    $0x8,%esp
c0101faf:	ff 75 08             	pushl  0x8(%ebp)
c0101fb2:	68 77 70 10 c0       	push   $0xc0107077
c0101fb7:	e8 f9 f6 ff ff       	call   c01016b5 <cprintf>
c0101fbc:	83 c4 10             	add    $0x10,%esp
c0101fbf:	c7 45 f4 00 00 00 00 	movl   $0x0,-0xc(%ebp)
c0101fc6:	83 ec 0c             	sub    $0xc,%esp
c0101fc9:	6a 00                	push   $0x0
c0101fcb:	e8 c6 ff ff ff       	call   c0101f96 <iscons>
c0101fd0:	83 c4 10             	add    $0x10,%esp
c0101fd3:	89 45 ec             	mov    %eax,-0x14(%ebp)
c0101fd6:	e8 a2 ff ff ff       	call   c0101f7d <getchar>
c0101fdb:	89 45 e8             	mov    %eax,-0x18(%ebp)
c0101fde:	81 7d e8 e2 00 00 00 	cmpl   $0xe2,-0x18(%ebp)
c0101fe5:	0f 85 b8 00 00 00    	jne    c01020a3 <readline+0x103>
c0101feb:	83 7d ec 00          	cmpl   $0x0,-0x14(%ebp)
c0101fef:	0f 84 1f 03 00 00    	je     c0102314 <readline+0x374>
c0101ff5:	eb 0d                	jmp    c0102004 <readline+0x64>
c0101ff7:	83 ec 0c             	sub    $0xc,%esp
c0101ffa:	6a 08                	push   $0x8
c0101ffc:	e8 66 ff ff ff       	call   c0101f67 <cputchar>
c0102001:	83 c4 10             	add    $0x10,%esp
c0102004:	8b 45 f4             	mov    -0xc(%ebp),%eax
c0102007:	8d 50 ff             	lea    -0x1(%eax),%edx
c010200a:	89 55 f4             	mov    %edx,-0xc(%ebp)
c010200d:	85 c0                	test   %eax,%eax
c010200f:	75 e6                	jne    c0101ff7 <readline+0x57>
c0102011:	c6 05 c0 52 11 c0 01 	movb   $0x1,0xc01152c0
c0102018:	c7 45 f4 00 00 00 00 	movl   $0x0,-0xc(%ebp)
c010201f:	eb 40                	jmp    c0102061 <readline+0xc1>
c0102021:	a1 30 88 15 c0       	mov    0xc0158830,%eax
c0102026:	c1 e0 0a             	shl    $0xa,%eax
c0102029:	89 c2                	mov    %eax,%edx
c010202b:	8b 45 f4             	mov    -0xc(%ebp),%eax
c010202e:	01 d0                	add    %edx,%eax
c0102030:	05 00 5f 15 c0       	add    $0xc0155f00,%eax
c0102035:	0f b6 00             	movzbl (%eax),%eax
c0102038:	8b 55 f4             	mov    -0xc(%ebp),%edx
c010203b:	81 c2 00 53 11 c0    	add    $0xc0115300,%edx
c0102041:	88 02                	mov    %al,(%edx)
c0102043:	8b 45 f4             	mov    -0xc(%ebp),%eax
c0102046:	05 00 53 11 c0       	add    $0xc0115300,%eax
c010204b:	0f b6 00             	movzbl (%eax),%eax
c010204e:	0f be c0             	movsbl %al,%eax
c0102051:	83 ec 0c             	sub    $0xc,%esp
c0102054:	50                   	push   %eax
c0102055:	e8 0d ff ff ff       	call   c0101f67 <cputchar>
c010205a:	83 c4 10             	add    $0x10,%esp
c010205d:	83 45 f4 01          	addl   $0x1,-0xc(%ebp)
c0102061:	a1 30 88 15 c0       	mov    0xc0158830,%eax
c0102066:	c1 e0 0a             	shl    $0xa,%eax
c0102069:	89 c2                	mov    %eax,%edx
c010206b:	8b 45 f4             	mov    -0xc(%ebp),%eax
c010206e:	01 d0                	add    %edx,%eax
c0102070:	05 00 5f 15 c0       	add    $0xc0155f00,%eax
c0102075:	0f b6 00             	movzbl (%eax),%eax
c0102078:	84 c0                	test   %al,%al
c010207a:	75 a5                	jne    c0102021 <readline+0x81>
c010207c:	a1 c0 5c 13 c0       	mov    0xc0135cc0,%eax
c0102081:	8d 50 ff             	lea    -0x1(%eax),%edx
c0102084:	a1 30 88 15 c0       	mov    0xc0158830,%eax
c0102089:	39 c2                	cmp    %eax,%edx
c010208b:	0f 84 83 02 00 00    	je     c0102314 <readline+0x374>
c0102091:	a1 30 88 15 c0       	mov    0xc0158830,%eax
c0102096:	83 c0 01             	add    $0x1,%eax
c0102099:	a3 30 88 15 c0       	mov    %eax,0xc0158830
c010209e:	e9 33 ff ff ff       	jmp    c0101fd6 <readline+0x36>
c01020a3:	81 7d e8 e3 00 00 00 	cmpl   $0xe3,-0x18(%ebp)
c01020aa:	0f 85 b7 00 00 00    	jne    c0102167 <readline+0x1c7>
c01020b0:	a1 30 88 15 c0       	mov    0xc0158830,%eax
c01020b5:	85 c0                	test   %eax,%eax
c01020b7:	0f 8e 57 02 00 00    	jle    c0102314 <readline+0x374>
c01020bd:	eb 0d                	jmp    c01020cc <readline+0x12c>
c01020bf:	83 ec 0c             	sub    $0xc,%esp
c01020c2:	6a 08                	push   $0x8
c01020c4:	e8 9e fe ff ff       	call   c0101f67 <cputchar>
c01020c9:	83 c4 10             	add    $0x10,%esp
c01020cc:	8b 45 f4             	mov    -0xc(%ebp),%eax
c01020cf:	8d 50 ff             	lea    -0x1(%eax),%edx
c01020d2:	89 55 f4             	mov    %edx,-0xc(%ebp)
c01020d5:	85 c0                	test   %eax,%eax
c01020d7:	75 e6                	jne    c01020bf <readline+0x11f>
c01020d9:	0f b6 05 c0 52 11 c0 	movzbl 0xc01152c0,%eax
c01020e0:	84 c0                	test   %al,%al
c01020e2:	75 0d                	jne    c01020f1 <readline+0x151>
c01020e4:	a1 30 88 15 c0       	mov    0xc0158830,%eax
c01020e9:	83 e8 01             	sub    $0x1,%eax
c01020ec:	a3 30 88 15 c0       	mov    %eax,0xc0158830
c01020f1:	c6 05 c0 52 11 c0 00 	movb   $0x0,0xc01152c0
c01020f8:	c7 45 f4 00 00 00 00 	movl   $0x0,-0xc(%ebp)
c01020ff:	eb 43                	jmp    c0102144 <readline+0x1a4>
c0102101:	a1 30 88 15 c0       	mov    0xc0158830,%eax
c0102106:	83 e8 01             	sub    $0x1,%eax
c0102109:	c1 e0 0a             	shl    $0xa,%eax
c010210c:	89 c2                	mov    %eax,%edx
c010210e:	8b 45 f4             	mov    -0xc(%ebp),%eax
c0102111:	01 d0                	add    %edx,%eax
c0102113:	05 00 5f 15 c0       	add    $0xc0155f00,%eax
c0102118:	0f b6 00             	movzbl (%eax),%eax
c010211b:	8b 55 f4             	mov    -0xc(%ebp),%edx
c010211e:	81 c2 00 53 11 c0    	add    $0xc0115300,%edx
c0102124:	88 02                	mov    %al,(%edx)
c0102126:	8b 45 f4             	mov    -0xc(%ebp),%eax
c0102129:	05 00 53 11 c0       	add    $0xc0115300,%eax
c010212e:	0f b6 00             	movzbl (%eax),%eax
c0102131:	0f be c0             	movsbl %al,%eax
c0102134:	83 ec 0c             	sub    $0xc,%esp
c0102137:	50                   	push   %eax
c0102138:	e8 2a fe ff ff       	call   c0101f67 <cputchar>
c010213d:	83 c4 10             	add    $0x10,%esp
c0102140:	83 45 f4 01          	addl   $0x1,-0xc(%ebp)
c0102144:	a1 30 88 15 c0       	mov    0xc0158830,%eax
c0102149:	83 e8 01             	sub    $0x1,%eax
c010214c:	c1 e0 0a             	shl    $0xa,%eax
c010214f:	89 c2                	mov    %eax,%edx
c0102151:	8b 45 f4             	mov    -0xc(%ebp),%eax
c0102154:	01 d0                	add    %edx,%eax
c0102156:	05 00 5f 15 c0       	add    $0xc0155f00,%eax
c010215b:	0f b6 00             	movzbl (%eax),%eax
c010215e:	84 c0                	test   %al,%al
c0102160:	75 9f                	jne    c0102101 <readline+0x161>
c0102162:	e9 ad 01 00 00       	jmp    c0102314 <readline+0x374>
c0102167:	83 7d e8 00          	cmpl   $0x0,-0x18(%ebp)
c010216b:	79 1d                	jns    c010218a <readline+0x1ea>
c010216d:	83 ec 08             	sub    $0x8,%esp
c0102170:	ff 75 e8             	pushl  -0x18(%ebp)
c0102173:	68 7a 70 10 c0       	push   $0xc010707a
c0102178:	e8 38 f5 ff ff       	call   c01016b5 <cprintf>
c010217d:	83 c4 10             	add    $0x10,%esp
c0102180:	b8 00 00 00 00       	mov    $0x0,%eax
c0102185:	e9 8f 01 00 00       	jmp    c0102319 <readline+0x379>
c010218a:	83 7d e8 08          	cmpl   $0x8,-0x18(%ebp)
c010218e:	74 06                	je     c0102196 <readline+0x1f6>
c0102190:	83 7d e8 7f          	cmpl   $0x7f,-0x18(%ebp)
c0102194:	75 1c                	jne    c01021b2 <readline+0x212>
c0102196:	83 7d f4 00          	cmpl   $0x0,-0xc(%ebp)
c010219a:	7e 16                	jle    c01021b2 <readline+0x212>
c010219c:	83 ec 0c             	sub    $0xc,%esp
c010219f:	6a 08                	push   $0x8
c01021a1:	e8 c1 fd ff ff       	call   c0101f67 <cputchar>
c01021a6:	83 c4 10             	add    $0x10,%esp
c01021a9:	83 6d f4 01          	subl   $0x1,-0xc(%ebp)
c01021ad:	e9 62 01 00 00       	jmp    c0102314 <readline+0x374>
c01021b2:	83 7d e8 1f          	cmpl   $0x1f,-0x18(%ebp)
c01021b6:	7e 34                	jle    c01021ec <readline+0x24c>
c01021b8:	81 7d f4 fe 03 00 00 	cmpl   $0x3fe,-0xc(%ebp)
c01021bf:	7f 2b                	jg     c01021ec <readline+0x24c>
c01021c1:	83 7d ec 00          	cmpl   $0x0,-0x14(%ebp)
c01021c5:	74 0e                	je     c01021d5 <readline+0x235>
c01021c7:	83 ec 0c             	sub    $0xc,%esp
c01021ca:	ff 75 e8             	pushl  -0x18(%ebp)
c01021cd:	e8 95 fd ff ff       	call   c0101f67 <cputchar>
c01021d2:	83 c4 10             	add    $0x10,%esp
c01021d5:	8b 45 f4             	mov    -0xc(%ebp),%eax
c01021d8:	8d 50 01             	lea    0x1(%eax),%edx
c01021db:	89 55 f4             	mov    %edx,-0xc(%ebp)
c01021de:	8b 55 e8             	mov    -0x18(%ebp),%edx
c01021e1:	88 90 00 53 11 c0    	mov    %dl,-0x3feead00(%eax)
c01021e7:	e9 28 01 00 00       	jmp    c0102314 <readline+0x374>
c01021ec:	83 7d e8 0a          	cmpl   $0xa,-0x18(%ebp)
c01021f0:	74 0a                	je     c01021fc <readline+0x25c>
c01021f2:	83 7d e8 0d          	cmpl   $0xd,-0x18(%ebp)
c01021f6:	0f 85 18 01 00 00    	jne    c0102314 <readline+0x374>
c01021fc:	83 7d ec 00          	cmpl   $0x0,-0x14(%ebp)
c0102200:	74 0d                	je     c010220f <readline+0x26f>
c0102202:	83 ec 0c             	sub    $0xc,%esp
c0102205:	6a 0a                	push   $0xa
c0102207:	e8 5b fd ff ff       	call   c0101f67 <cputchar>
c010220c:	83 c4 10             	add    $0x10,%esp
c010220f:	8b 45 f4             	mov    -0xc(%ebp),%eax
c0102212:	05 00 53 11 c0       	add    $0xc0115300,%eax
c0102217:	c6 00 00             	movb   $0x0,(%eax)
c010221a:	a1 c0 5c 13 c0       	mov    0xc0135cc0,%eax
c010221f:	83 e8 01             	sub    $0x1,%eax
c0102222:	89 45 f0             	mov    %eax,-0x10(%ebp)
c0102225:	eb 39                	jmp    c0102260 <readline+0x2c0>
c0102227:	8b 45 f0             	mov    -0x10(%ebp),%eax
c010222a:	c1 e0 0a             	shl    $0xa,%eax
c010222d:	8d 90 00 5f 15 c0    	lea    -0x3feaa100(%eax),%edx
c0102233:	a1 30 88 15 c0       	mov    0xc0158830,%eax
c0102238:	8b 4d f0             	mov    -0x10(%ebp),%ecx
c010223b:	29 c1                	sub    %eax,%ecx
c010223d:	89 c8                	mov    %ecx,%eax
c010223f:	83 c0 01             	add    $0x1,%eax
c0102242:	c1 e0 0a             	shl    $0xa,%eax
c0102245:	05 80 52 16 c0       	add    $0xc0165280,%eax
c010224a:	83 ec 04             	sub    $0x4,%esp
c010224d:	68 00 04 00 00       	push   $0x400
c0102252:	52                   	push   %edx
c0102253:	50                   	push   %eax
c0102254:	e8 a6 02 00 00       	call   c01024ff <memcpy>
c0102259:	83 c4 10             	add    $0x10,%esp
c010225c:	83 6d f0 01          	subl   $0x1,-0x10(%ebp)
c0102260:	a1 30 88 15 c0       	mov    0xc0158830,%eax
c0102265:	39 45 f0             	cmp    %eax,-0x10(%ebp)
c0102268:	7d bd                	jge    c0102227 <readline+0x287>
c010226a:	c7 45 f0 01 00 00 00 	movl   $0x1,-0x10(%ebp)
c0102271:	eb 2d                	jmp    c01022a0 <readline+0x300>
c0102273:	8b 45 f0             	mov    -0x10(%ebp),%eax
c0102276:	c1 e0 0a             	shl    $0xa,%eax
c0102279:	8d 90 80 52 16 c0    	lea    -0x3fe9ad80(%eax),%edx
c010227f:	8b 45 f0             	mov    -0x10(%ebp),%eax
c0102282:	c1 e0 0a             	shl    $0xa,%eax
c0102285:	05 00 5f 15 c0       	add    $0xc0155f00,%eax
c010228a:	83 ec 04             	sub    $0x4,%esp
c010228d:	68 00 04 00 00       	push   $0x400
c0102292:	52                   	push   %edx
c0102293:	50                   	push   %eax
c0102294:	e8 66 02 00 00       	call   c01024ff <memcpy>
c0102299:	83 c4 10             	add    $0x10,%esp
c010229c:	83 45 f0 01          	addl   $0x1,-0x10(%ebp)
c01022a0:	8b 15 c0 5c 13 c0    	mov    0xc0135cc0,%edx
c01022a6:	a1 30 88 15 c0       	mov    0xc0158830,%eax
c01022ab:	29 c2                	sub    %eax,%edx
c01022ad:	89 d0                	mov    %edx,%eax
c01022af:	83 c0 01             	add    $0x1,%eax
c01022b2:	3b 45 f0             	cmp    -0x10(%ebp),%eax
c01022b5:	7f bc                	jg     c0102273 <readline+0x2d3>
c01022b7:	83 ec 04             	sub    $0x4,%esp
c01022ba:	68 00 04 00 00       	push   $0x400
c01022bf:	68 00 53 11 c0       	push   $0xc0115300
c01022c4:	68 00 5f 15 c0       	push   $0xc0155f00
c01022c9:	e8 31 02 00 00       	call   c01024ff <memcpy>
c01022ce:	83 c4 10             	add    $0x10,%esp
c01022d1:	8b 15 c0 5c 13 c0    	mov    0xc0135cc0,%edx
c01022d7:	a1 30 88 15 c0       	mov    0xc0158830,%eax
c01022dc:	29 c2                	sub    %eax,%edx
c01022de:	89 d0                	mov    %edx,%eax
c01022e0:	a3 c0 5c 13 c0       	mov    %eax,0xc0135cc0
c01022e5:	a1 c0 5c 13 c0       	mov    0xc0135cc0,%eax
c01022ea:	83 f8 09             	cmp    $0x9,%eax
c01022ed:	74 0d                	je     c01022fc <readline+0x35c>
c01022ef:	a1 c0 5c 13 c0       	mov    0xc0135cc0,%eax
c01022f4:	83 c0 01             	add    $0x1,%eax
c01022f7:	a3 c0 5c 13 c0       	mov    %eax,0xc0135cc0
c01022fc:	c7 05 30 88 15 c0 00 	movl   $0x0,0xc0158830
c0102303:	00 00 00 
c0102306:	c6 05 c0 52 11 c0 00 	movb   $0x0,0xc01152c0
c010230d:	b8 00 53 11 c0       	mov    $0xc0115300,%eax
c0102312:	eb 05                	jmp    c0102319 <readline+0x379>
c0102314:	e9 bd fc ff ff       	jmp    c0101fd6 <readline+0x36>
c0102319:	c9                   	leave  
c010231a:	c3                   	ret    

c010231b <srand>:
c010231b:	55                   	push   %ebp
c010231c:	89 e5                	mov    %esp,%ebp
c010231e:	8b 45 08             	mov    0x8(%ebp),%eax
c0102321:	a3 00 57 11 c0       	mov    %eax,0xc0115700
c0102326:	5d                   	pop    %ebp
c0102327:	c3                   	ret    

c0102328 <rand>:
c0102328:	55                   	push   %ebp
c0102329:	89 e5                	mov    %esp,%ebp
c010232b:	a1 00 57 11 c0       	mov    0xc0115700,%eax
c0102330:	69 c0 35 4e 5a 01    	imul   $0x15a4e35,%eax,%eax
c0102336:	83 c0 01             	add    $0x1,%eax
c0102339:	a3 00 57 11 c0       	mov    %eax,0xc0115700
c010233e:	a1 00 57 11 c0       	mov    0xc0115700,%eax
c0102343:	c1 f8 10             	sar    $0x10,%eax
c0102346:	25 ff 7f 00 00       	and    $0x7fff,%eax
c010234b:	5d                   	pop    %ebp
c010234c:	c3                   	ret    

c010234d <memmove>:
c010234d:	55                   	push   %ebp
c010234e:	89 e5                	mov    %esp,%ebp
c0102350:	57                   	push   %edi
c0102351:	56                   	push   %esi
c0102352:	53                   	push   %ebx
c0102353:	83 ec 10             	sub    $0x10,%esp
c0102356:	8b 45 0c             	mov    0xc(%ebp),%eax
c0102359:	89 45 f0             	mov    %eax,-0x10(%ebp)
c010235c:	8b 45 08             	mov    0x8(%ebp),%eax
c010235f:	89 45 ec             	mov    %eax,-0x14(%ebp)
c0102362:	8b 45 f0             	mov    -0x10(%ebp),%eax
c0102365:	3b 45 ec             	cmp    -0x14(%ebp),%eax
c0102368:	73 6d                	jae    c01023d7 <memmove+0x8a>
c010236a:	8b 55 f0             	mov    -0x10(%ebp),%edx
c010236d:	8b 45 10             	mov    0x10(%ebp),%eax
c0102370:	01 d0                	add    %edx,%eax
c0102372:	3b 45 ec             	cmp    -0x14(%ebp),%eax
c0102375:	76 60                	jbe    c01023d7 <memmove+0x8a>
c0102377:	8b 45 10             	mov    0x10(%ebp),%eax
c010237a:	01 45 f0             	add    %eax,-0x10(%ebp)
c010237d:	8b 45 10             	mov    0x10(%ebp),%eax
c0102380:	01 45 ec             	add    %eax,-0x14(%ebp)
c0102383:	8b 45 f0             	mov    -0x10(%ebp),%eax
c0102386:	83 e0 03             	and    $0x3,%eax
c0102389:	85 c0                	test   %eax,%eax
c010238b:	75 2f                	jne    c01023bc <memmove+0x6f>
c010238d:	8b 45 ec             	mov    -0x14(%ebp),%eax
c0102390:	83 e0 03             	and    $0x3,%eax
c0102393:	85 c0                	test   %eax,%eax
c0102395:	75 25                	jne    c01023bc <memmove+0x6f>
c0102397:	8b 45 10             	mov    0x10(%ebp),%eax
c010239a:	83 e0 03             	and    $0x3,%eax
c010239d:	85 c0                	test   %eax,%eax
c010239f:	75 1b                	jne    c01023bc <memmove+0x6f>
c01023a1:	8b 45 ec             	mov    -0x14(%ebp),%eax
c01023a4:	83 e8 04             	sub    $0x4,%eax
c01023a7:	8b 55 f0             	mov    -0x10(%ebp),%edx
c01023aa:	83 ea 04             	sub    $0x4,%edx
c01023ad:	8b 4d 10             	mov    0x10(%ebp),%ecx
c01023b0:	c1 e9 02             	shr    $0x2,%ecx
c01023b3:	89 c7                	mov    %eax,%edi
c01023b5:	89 d6                	mov    %edx,%esi
c01023b7:	fd                   	std    
c01023b8:	f3 a5                	rep movsl %ds:(%esi),%es:(%edi)
c01023ba:	eb 18                	jmp    c01023d4 <memmove+0x87>
c01023bc:	8b 45 ec             	mov    -0x14(%ebp),%eax
c01023bf:	8d 50 ff             	lea    -0x1(%eax),%edx
c01023c2:	8b 45 f0             	mov    -0x10(%ebp),%eax
c01023c5:	8d 58 ff             	lea    -0x1(%eax),%ebx
c01023c8:	8b 45 10             	mov    0x10(%ebp),%eax
c01023cb:	89 d7                	mov    %edx,%edi
c01023cd:	89 de                	mov    %ebx,%esi
c01023cf:	89 c1                	mov    %eax,%ecx
c01023d1:	fd                   	std    
c01023d2:	f3 a4                	rep movsb %ds:(%esi),%es:(%edi)
c01023d4:	fc                   	cld    
c01023d5:	eb 45                	jmp    c010241c <memmove+0xcf>
c01023d7:	8b 45 f0             	mov    -0x10(%ebp),%eax
c01023da:	83 e0 03             	and    $0x3,%eax
c01023dd:	85 c0                	test   %eax,%eax
c01023df:	75 2b                	jne    c010240c <memmove+0xbf>
c01023e1:	8b 45 ec             	mov    -0x14(%ebp),%eax
c01023e4:	83 e0 03             	and    $0x3,%eax
c01023e7:	85 c0                	test   %eax,%eax
c01023e9:	75 21                	jne    c010240c <memmove+0xbf>
c01023eb:	8b 45 10             	mov    0x10(%ebp),%eax
c01023ee:	83 e0 03             	and    $0x3,%eax
c01023f1:	85 c0                	test   %eax,%eax
c01023f3:	75 17                	jne    c010240c <memmove+0xbf>
c01023f5:	8b 45 10             	mov    0x10(%ebp),%eax
c01023f8:	c1 e8 02             	shr    $0x2,%eax
c01023fb:	89 c1                	mov    %eax,%ecx
c01023fd:	8b 45 ec             	mov    -0x14(%ebp),%eax
c0102400:	8b 55 f0             	mov    -0x10(%ebp),%edx
c0102403:	89 c7                	mov    %eax,%edi
c0102405:	89 d6                	mov    %edx,%esi
c0102407:	fc                   	cld    
c0102408:	f3 a5                	rep movsl %ds:(%esi),%es:(%edi)
c010240a:	eb 10                	jmp    c010241c <memmove+0xcf>
c010240c:	8b 45 ec             	mov    -0x14(%ebp),%eax
c010240f:	8b 55 f0             	mov    -0x10(%ebp),%edx
c0102412:	8b 4d 10             	mov    0x10(%ebp),%ecx
c0102415:	89 c7                	mov    %eax,%edi
c0102417:	89 d6                	mov    %edx,%esi
c0102419:	fc                   	cld    
c010241a:	f3 a4                	rep movsb %ds:(%esi),%es:(%edi)
c010241c:	8b 45 08             	mov    0x8(%ebp),%eax
c010241f:	83 c4 10             	add    $0x10,%esp
c0102422:	5b                   	pop    %ebx
c0102423:	5e                   	pop    %esi
c0102424:	5f                   	pop    %edi
c0102425:	5d                   	pop    %ebp
c0102426:	c3                   	ret    

c0102427 <strchr>:
c0102427:	55                   	push   %ebp
c0102428:	89 e5                	mov    %esp,%ebp
c010242a:	83 ec 04             	sub    $0x4,%esp
c010242d:	8b 45 0c             	mov    0xc(%ebp),%eax
c0102430:	88 45 fc             	mov    %al,-0x4(%ebp)
c0102433:	eb 14                	jmp    c0102449 <strchr+0x22>
c0102435:	8b 45 08             	mov    0x8(%ebp),%eax
c0102438:	0f b6 00             	movzbl (%eax),%eax
c010243b:	3a 45 fc             	cmp    -0x4(%ebp),%al
c010243e:	75 05                	jne    c0102445 <strchr+0x1e>
c0102440:	8b 45 08             	mov    0x8(%ebp),%eax
c0102443:	eb 13                	jmp    c0102458 <strchr+0x31>
c0102445:	83 45 08 01          	addl   $0x1,0x8(%ebp)
c0102449:	8b 45 08             	mov    0x8(%ebp),%eax
c010244c:	0f b6 00             	movzbl (%eax),%eax
c010244f:	84 c0                	test   %al,%al
c0102451:	75 e2                	jne    c0102435 <strchr+0xe>
c0102453:	b8 00 00 00 00       	mov    $0x0,%eax
c0102458:	c9                   	leave  
c0102459:	c3                   	ret    

c010245a <strcmp>:
c010245a:	55                   	push   %ebp
c010245b:	89 e5                	mov    %esp,%ebp
c010245d:	eb 08                	jmp    c0102467 <strcmp+0xd>
c010245f:	83 45 08 01          	addl   $0x1,0x8(%ebp)
c0102463:	83 45 0c 01          	addl   $0x1,0xc(%ebp)
c0102467:	8b 45 08             	mov    0x8(%ebp),%eax
c010246a:	0f b6 00             	movzbl (%eax),%eax
c010246d:	84 c0                	test   %al,%al
c010246f:	74 10                	je     c0102481 <strcmp+0x27>
c0102471:	8b 45 08             	mov    0x8(%ebp),%eax
c0102474:	0f b6 10             	movzbl (%eax),%edx
c0102477:	8b 45 0c             	mov    0xc(%ebp),%eax
c010247a:	0f b6 00             	movzbl (%eax),%eax
c010247d:	38 c2                	cmp    %al,%dl
c010247f:	74 de                	je     c010245f <strcmp+0x5>
c0102481:	8b 45 08             	mov    0x8(%ebp),%eax
c0102484:	0f b6 00             	movzbl (%eax),%eax
c0102487:	0f b6 d0             	movzbl %al,%edx
c010248a:	8b 45 0c             	mov    0xc(%ebp),%eax
c010248d:	0f b6 00             	movzbl (%eax),%eax
c0102490:	0f b6 c0             	movzbl %al,%eax
c0102493:	29 c2                	sub    %eax,%edx
c0102495:	89 d0                	mov    %edx,%eax
c0102497:	5d                   	pop    %ebp
c0102498:	c3                   	ret    

c0102499 <itoa>:
c0102499:	55                   	push   %ebp
c010249a:	89 e5                	mov    %esp,%ebp
c010249c:	83 ec 10             	sub    $0x10,%esp
c010249f:	c7 45 fc 21 57 11 c0 	movl   $0xc0115721,-0x4(%ebp)
c01024a6:	83 6d fc 01          	subl   $0x1,-0x4(%ebp)
c01024aa:	8b 4d 08             	mov    0x8(%ebp),%ecx
c01024ad:	ba 67 66 66 66       	mov    $0x66666667,%edx
c01024b2:	89 c8                	mov    %ecx,%eax
c01024b4:	f7 ea                	imul   %edx
c01024b6:	c1 fa 02             	sar    $0x2,%edx
c01024b9:	89 c8                	mov    %ecx,%eax
c01024bb:	c1 f8 1f             	sar    $0x1f,%eax
c01024be:	29 c2                	sub    %eax,%edx
c01024c0:	89 d0                	mov    %edx,%eax
c01024c2:	c1 e0 02             	shl    $0x2,%eax
c01024c5:	01 d0                	add    %edx,%eax
c01024c7:	01 c0                	add    %eax,%eax
c01024c9:	29 c1                	sub    %eax,%ecx
c01024cb:	89 ca                	mov    %ecx,%edx
c01024cd:	89 d0                	mov    %edx,%eax
c01024cf:	83 c0 30             	add    $0x30,%eax
c01024d2:	89 c2                	mov    %eax,%edx
c01024d4:	8b 45 fc             	mov    -0x4(%ebp),%eax
c01024d7:	88 10                	mov    %dl,(%eax)
c01024d9:	8b 4d 08             	mov    0x8(%ebp),%ecx
c01024dc:	ba 67 66 66 66       	mov    $0x66666667,%edx
c01024e1:	89 c8                	mov    %ecx,%eax
c01024e3:	f7 ea                	imul   %edx
c01024e5:	c1 fa 02             	sar    $0x2,%edx
c01024e8:	89 c8                	mov    %ecx,%eax
c01024ea:	c1 f8 1f             	sar    $0x1f,%eax
c01024ed:	29 c2                	sub    %eax,%edx
c01024ef:	89 d0                	mov    %edx,%eax
c01024f1:	89 45 08             	mov    %eax,0x8(%ebp)
c01024f4:	83 7d 08 00          	cmpl   $0x0,0x8(%ebp)
c01024f8:	75 ac                	jne    c01024a6 <itoa+0xd>
c01024fa:	8b 45 fc             	mov    -0x4(%ebp),%eax
c01024fd:	c9                   	leave  
c01024fe:	c3                   	ret    

c01024ff <memcpy>:
c01024ff:	55                   	push   %ebp
c0102500:	89 e5                	mov    %esp,%ebp
c0102502:	57                   	push   %edi
c0102503:	56                   	push   %esi
c0102504:	53                   	push   %ebx
c0102505:	8b 45 10             	mov    0x10(%ebp),%eax
c0102508:	8b 55 0c             	mov    0xc(%ebp),%edx
c010250b:	8b 5d 08             	mov    0x8(%ebp),%ebx
c010250e:	89 c1                	mov    %eax,%ecx
c0102510:	89 d6                	mov    %edx,%esi
c0102512:	89 df                	mov    %ebx,%edi
c0102514:	fc                   	cld    
c0102515:	f3 a4                	rep movsb %ds:(%esi),%es:(%edi)
c0102517:	5b                   	pop    %ebx
c0102518:	5e                   	pop    %esi
c0102519:	5f                   	pop    %edi
c010251a:	5d                   	pop    %ebp
c010251b:	c3                   	ret    

c010251c <memset>:
c010251c:	55                   	push   %ebp
c010251d:	89 e5                	mov    %esp,%ebp
c010251f:	57                   	push   %edi
c0102520:	53                   	push   %ebx
c0102521:	8b 55 10             	mov    0x10(%ebp),%edx
c0102524:	8b 45 0c             	mov    0xc(%ebp),%eax
c0102527:	8b 5d 08             	mov    0x8(%ebp),%ebx
c010252a:	89 d1                	mov    %edx,%ecx
c010252c:	89 df                	mov    %ebx,%edi
c010252e:	fc                   	cld    
c010252f:	f3 aa                	rep stos %al,%es:(%edi)
c0102531:	5b                   	pop    %ebx
c0102532:	5f                   	pop    %edi
c0102533:	5d                   	pop    %ebp
c0102534:	c3                   	ret    

c0102535 <strlen>:
c0102535:	55                   	push   %ebp
c0102536:	89 e5                	mov    %esp,%ebp
c0102538:	83 ec 10             	sub    $0x10,%esp
c010253b:	c7 45 fc 00 00 00 00 	movl   $0x0,-0x4(%ebp)
c0102542:	eb 04                	jmp    c0102548 <strlen+0x13>
c0102544:	83 45 fc 01          	addl   $0x1,-0x4(%ebp)
c0102548:	8b 45 08             	mov    0x8(%ebp),%eax
c010254b:	8d 50 01             	lea    0x1(%eax),%edx
c010254e:	89 55 08             	mov    %edx,0x8(%ebp)
c0102551:	0f b6 00             	movzbl (%eax),%eax
c0102554:	84 c0                	test   %al,%al
c0102556:	75 ec                	jne    c0102544 <strlen+0xf>
c0102558:	8b 45 fc             	mov    -0x4(%ebp),%eax
c010255b:	c9                   	leave  
c010255c:	c3                   	ret    

c010255d <strnlen>:
c010255d:	55                   	push   %ebp
c010255e:	89 e5                	mov    %esp,%ebp
c0102560:	83 ec 10             	sub    $0x10,%esp
c0102563:	c7 45 fc 00 00 00 00 	movl   $0x0,-0x4(%ebp)
c010256a:	eb 0c                	jmp    c0102578 <strnlen+0x1b>
c010256c:	83 45 fc 01          	addl   $0x1,-0x4(%ebp)
c0102570:	83 45 08 01          	addl   $0x1,0x8(%ebp)
c0102574:	83 6d 0c 01          	subl   $0x1,0xc(%ebp)
c0102578:	83 7d 0c 00          	cmpl   $0x0,0xc(%ebp)
c010257c:	74 0a                	je     c0102588 <strnlen+0x2b>
c010257e:	8b 45 08             	mov    0x8(%ebp),%eax
c0102581:	0f b6 00             	movzbl (%eax),%eax
c0102584:	84 c0                	test   %al,%al
c0102586:	75 e4                	jne    c010256c <strnlen+0xf>
c0102588:	8b 45 fc             	mov    -0x4(%ebp),%eax
c010258b:	c9                   	leave  
c010258c:	c3                   	ret    

c010258d <strcpy>:
c010258d:	55                   	push   %ebp
c010258e:	89 e5                	mov    %esp,%ebp
c0102590:	ff 75 0c             	pushl  0xc(%ebp)
c0102593:	e8 9d ff ff ff       	call   c0102535 <strlen>
c0102598:	83 c4 04             	add    $0x4,%esp
c010259b:	83 c0 01             	add    $0x1,%eax
c010259e:	50                   	push   %eax
c010259f:	ff 75 0c             	pushl  0xc(%ebp)
c01025a2:	ff 75 08             	pushl  0x8(%ebp)
c01025a5:	e8 55 ff ff ff       	call   c01024ff <memcpy>
c01025aa:	83 c4 0c             	add    $0xc,%esp
c01025ad:	c9                   	leave  
c01025ae:	c3                   	ret    

c01025af <myprint>:
c01025af:	55                   	push   %ebp
c01025b0:	89 e5                	mov    %esp,%ebp
c01025b2:	83 ec 08             	sub    $0x8,%esp
c01025b5:	83 ec 0c             	sub    $0xc,%esp
c01025b8:	6a 2d                	push   $0x2d
c01025ba:	e8 1d 2e 00 00       	call   c01053dc <serial_printc>
c01025bf:	83 c4 10             	add    $0x10,%esp
c01025c2:	83 ec 0c             	sub    $0xc,%esp
c01025c5:	6a 32                	push   $0x32
c01025c7:	e8 10 2e 00 00       	call   c01053dc <serial_printc>
c01025cc:	83 c4 10             	add    $0x10,%esp
c01025cf:	83 ec 0c             	sub    $0xc,%esp
c01025d2:	6a 31                	push   $0x31
c01025d4:	e8 03 2e 00 00       	call   c01053dc <serial_printc>
c01025d9:	83 c4 10             	add    $0x10,%esp
c01025dc:	83 ec 0c             	sub    $0xc,%esp
c01025df:	6a 34                	push   $0x34
c01025e1:	e8 f6 2d 00 00       	call   c01053dc <serial_printc>
c01025e6:	83 c4 10             	add    $0x10,%esp
c01025e9:	83 ec 0c             	sub    $0xc,%esp
c01025ec:	6a 37                	push   $0x37
c01025ee:	e8 e9 2d 00 00       	call   c01053dc <serial_printc>
c01025f3:	83 c4 10             	add    $0x10,%esp
c01025f6:	83 ec 0c             	sub    $0xc,%esp
c01025f9:	6a 34                	push   $0x34
c01025fb:	e8 dc 2d 00 00       	call   c01053dc <serial_printc>
c0102600:	83 c4 10             	add    $0x10,%esp
c0102603:	83 ec 0c             	sub    $0xc,%esp
c0102606:	6a 38                	push   $0x38
c0102608:	e8 cf 2d 00 00       	call   c01053dc <serial_printc>
c010260d:	83 c4 10             	add    $0x10,%esp
c0102610:	83 ec 0c             	sub    $0xc,%esp
c0102613:	6a 33                	push   $0x33
c0102615:	e8 c2 2d 00 00       	call   c01053dc <serial_printc>
c010261a:	83 c4 10             	add    $0x10,%esp
c010261d:	83 ec 0c             	sub    $0xc,%esp
c0102620:	6a 36                	push   $0x36
c0102622:	e8 b5 2d 00 00       	call   c01053dc <serial_printc>
c0102627:	83 c4 10             	add    $0x10,%esp
c010262a:	83 ec 0c             	sub    $0xc,%esp
c010262d:	6a 34                	push   $0x34
c010262f:	e8 a8 2d 00 00       	call   c01053dc <serial_printc>
c0102634:	83 c4 10             	add    $0x10,%esp
c0102637:	83 ec 0c             	sub    $0xc,%esp
c010263a:	6a 38                	push   $0x38
c010263c:	e8 9b 2d 00 00       	call   c01053dc <serial_printc>
c0102641:	83 c4 10             	add    $0x10,%esp
c0102644:	c9                   	leave  
c0102645:	c3                   	ret    

c0102646 <vfprintf>:
c0102646:	55                   	push   %ebp
c0102647:	89 e5                	mov    %esp,%ebp
c0102649:	53                   	push   %ebx
c010264a:	81 ec 94 00 00 00    	sub    $0x94,%esp
c0102650:	c7 45 f4 00 00 00 00 	movl   $0x0,-0xc(%ebp)
c0102657:	8b 45 0c             	mov    0xc(%ebp),%eax
c010265a:	8d 50 01             	lea    0x1(%eax),%edx
c010265d:	89 55 0c             	mov    %edx,0xc(%ebp)
c0102660:	0f b6 00             	movzbl (%eax),%eax
c0102663:	88 45 eb             	mov    %al,-0x15(%ebp)
c0102666:	c7 45 e4 00 00 00 00 	movl   $0x0,-0x1c(%ebp)
c010266d:	c6 45 df 00          	movb   $0x0,-0x21(%ebp)
c0102671:	e9 02 03 00 00       	jmp    c0102978 <vfprintf+0x332>
c0102676:	80 7d eb 00          	cmpb   $0x0,-0x15(%ebp)
c010267a:	75 07                	jne    c0102683 <vfprintf+0x3d>
c010267c:	c7 45 e4 07 00 00 00 	movl   $0x7,-0x1c(%ebp)
c0102683:	8b 45 e4             	mov    -0x1c(%ebp),%eax
c0102686:	83 f8 01             	cmp    $0x1,%eax
c0102689:	74 45                	je     c01026d0 <vfprintf+0x8a>
c010268b:	83 f8 07             	cmp    $0x7,%eax
c010268e:	0f 84 e3 02 00 00    	je     c0102977 <vfprintf+0x331>
c0102694:	85 c0                	test   %eax,%eax
c0102696:	74 05                	je     c010269d <vfprintf+0x57>
c0102698:	e9 db 02 00 00       	jmp    c0102978 <vfprintf+0x332>
c010269d:	80 7d eb 25          	cmpb   $0x25,-0x15(%ebp)
c01026a1:	75 09                	jne    c01026ac <vfprintf+0x66>
c01026a3:	c7 45 e4 01 00 00 00 	movl   $0x1,-0x1c(%ebp)
c01026aa:	eb 10                	jmp    c01026bc <vfprintf+0x76>
c01026ac:	0f be 45 eb          	movsbl -0x15(%ebp),%eax
c01026b0:	83 ec 0c             	sub    $0xc,%esp
c01026b3:	50                   	push   %eax
c01026b4:	8b 45 08             	mov    0x8(%ebp),%eax
c01026b7:	ff d0                	call   *%eax
c01026b9:	83 c4 10             	add    $0x10,%esp
c01026bc:	8b 45 0c             	mov    0xc(%ebp),%eax
c01026bf:	8d 50 01             	lea    0x1(%eax),%edx
c01026c2:	89 55 0c             	mov    %edx,0xc(%ebp)
c01026c5:	0f b6 00             	movzbl (%eax),%eax
c01026c8:	88 45 eb             	mov    %al,-0x15(%ebp)
c01026cb:	e9 a8 02 00 00       	jmp    c0102978 <vfprintf+0x332>
c01026d0:	0f be 45 eb          	movsbl -0x15(%ebp),%eax
c01026d4:	83 f8 64             	cmp    $0x64,%eax
c01026d7:	74 33                	je     c010270c <vfprintf+0xc6>
c01026d9:	83 f8 64             	cmp    $0x64,%eax
c01026dc:	7f 17                	jg     c01026f5 <vfprintf+0xaf>
c01026de:	83 f8 25             	cmp    $0x25,%eax
c01026e1:	0f 84 66 02 00 00    	je     c010294d <vfprintf+0x307>
c01026e7:	83 f8 63             	cmp    $0x63,%eax
c01026ea:	0f 84 3c 02 00 00    	je     c010292c <vfprintf+0x2e6>
c01026f0:	e9 66 02 00 00       	jmp    c010295b <vfprintf+0x315>
c01026f5:	83 f8 73             	cmp    $0x73,%eax
c01026f8:	0f 84 da 01 00 00    	je     c01028d8 <vfprintf+0x292>
c01026fe:	83 f8 78             	cmp    $0x78,%eax
c0102701:	0f 84 00 01 00 00    	je     c0102807 <vfprintf+0x1c1>
c0102707:	e9 4f 02 00 00       	jmp    c010295b <vfprintf+0x315>
c010270c:	8b 45 f4             	mov    -0xc(%ebp),%eax
c010270f:	8d 14 85 00 00 00 00 	lea    0x0(,%eax,4),%edx
c0102716:	8b 45 10             	mov    0x10(%ebp),%eax
c0102719:	01 d0                	add    %edx,%eax
c010271b:	8b 00                	mov    (%eax),%eax
c010271d:	89 45 e0             	mov    %eax,-0x20(%ebp)
c0102720:	81 7d e0 00 00 00 80 	cmpl   $0x80000000,-0x20(%ebp)
c0102727:	75 0a                	jne    c0102733 <vfprintf+0xed>
c0102729:	e8 81 fe ff ff       	call   c01025af <myprint>
c010272e:	e9 28 02 00 00       	jmp    c010295b <vfprintf+0x315>
c0102733:	c6 45 df 00          	movb   $0x0,-0x21(%ebp)
c0102737:	83 7d e0 00          	cmpl   $0x0,-0x20(%ebp)
c010273b:	79 07                	jns    c0102744 <vfprintf+0xfe>
c010273d:	f7 5d e0             	negl   -0x20(%ebp)
c0102740:	c6 45 df 01          	movb   $0x1,-0x21(%ebp)
c0102744:	c7 45 f0 00 00 00 00 	movl   $0x0,-0x10(%ebp)
c010274b:	eb 53                	jmp    c01027a0 <vfprintf+0x15a>
c010274d:	8b 5d f0             	mov    -0x10(%ebp),%ebx
c0102750:	8d 43 01             	lea    0x1(%ebx),%eax
c0102753:	89 45 f0             	mov    %eax,-0x10(%ebp)
c0102756:	8b 4d e0             	mov    -0x20(%ebp),%ecx
c0102759:	ba 67 66 66 66       	mov    $0x66666667,%edx
c010275e:	89 c8                	mov    %ecx,%eax
c0102760:	f7 ea                	imul   %edx
c0102762:	c1 fa 02             	sar    $0x2,%edx
c0102765:	89 c8                	mov    %ecx,%eax
c0102767:	c1 f8 1f             	sar    $0x1f,%eax
c010276a:	29 c2                	sub    %eax,%edx
c010276c:	89 d0                	mov    %edx,%eax
c010276e:	c1 e0 02             	shl    $0x2,%eax
c0102771:	01 d0                	add    %edx,%eax
c0102773:	01 c0                	add    %eax,%eax
c0102775:	29 c1                	sub    %eax,%ecx
c0102777:	89 ca                	mov    %ecx,%edx
c0102779:	89 d0                	mov    %edx,%eax
c010277b:	83 c0 30             	add    $0x30,%eax
c010277e:	88 84 1d 74 ff ff ff 	mov    %al,-0x8c(%ebp,%ebx,1)
c0102785:	8b 4d e0             	mov    -0x20(%ebp),%ecx
c0102788:	ba 67 66 66 66       	mov    $0x66666667,%edx
c010278d:	89 c8                	mov    %ecx,%eax
c010278f:	f7 ea                	imul   %edx
c0102791:	c1 fa 02             	sar    $0x2,%edx
c0102794:	89 c8                	mov    %ecx,%eax
c0102796:	c1 f8 1f             	sar    $0x1f,%eax
c0102799:	29 c2                	sub    %eax,%edx
c010279b:	89 d0                	mov    %edx,%eax
c010279d:	89 45 e0             	mov    %eax,-0x20(%ebp)
c01027a0:	8b 45 e0             	mov    -0x20(%ebp),%eax
c01027a3:	83 c0 09             	add    $0x9,%eax
c01027a6:	83 f8 12             	cmp    $0x12,%eax
c01027a9:	77 a2                	ja     c010274d <vfprintf+0x107>
c01027ab:	8b 45 e0             	mov    -0x20(%ebp),%eax
c01027ae:	83 c0 30             	add    $0x30,%eax
c01027b1:	89 c1                	mov    %eax,%ecx
c01027b3:	8d 95 74 ff ff ff    	lea    -0x8c(%ebp),%edx
c01027b9:	8b 45 f0             	mov    -0x10(%ebp),%eax
c01027bc:	01 d0                	add    %edx,%eax
c01027be:	88 08                	mov    %cl,(%eax)
c01027c0:	80 7d df 00          	cmpb   $0x0,-0x21(%ebp)
c01027c4:	74 0d                	je     c01027d3 <vfprintf+0x18d>
c01027c6:	83 ec 0c             	sub    $0xc,%esp
c01027c9:	6a 2d                	push   $0x2d
c01027cb:	8b 45 08             	mov    0x8(%ebp),%eax
c01027ce:	ff d0                	call   *%eax
c01027d0:	83 c4 10             	add    $0x10,%esp
c01027d3:	8b 45 f0             	mov    -0x10(%ebp),%eax
c01027d6:	89 45 ec             	mov    %eax,-0x14(%ebp)
c01027d9:	eb 21                	jmp    c01027fc <vfprintf+0x1b6>
c01027db:	8d 95 74 ff ff ff    	lea    -0x8c(%ebp),%edx
c01027e1:	8b 45 ec             	mov    -0x14(%ebp),%eax
c01027e4:	01 d0                	add    %edx,%eax
c01027e6:	0f b6 00             	movzbl (%eax),%eax
c01027e9:	0f be c0             	movsbl %al,%eax
c01027ec:	83 ec 0c             	sub    $0xc,%esp
c01027ef:	50                   	push   %eax
c01027f0:	8b 45 08             	mov    0x8(%ebp),%eax
c01027f3:	ff d0                	call   *%eax
c01027f5:	83 c4 10             	add    $0x10,%esp
c01027f8:	83 6d ec 01          	subl   $0x1,-0x14(%ebp)
c01027fc:	83 7d ec 00          	cmpl   $0x0,-0x14(%ebp)
c0102800:	79 d9                	jns    c01027db <vfprintf+0x195>
c0102802:	e9 54 01 00 00       	jmp    c010295b <vfprintf+0x315>
c0102807:	8b 45 f4             	mov    -0xc(%ebp),%eax
c010280a:	8d 14 85 00 00 00 00 	lea    0x0(,%eax,4),%edx
c0102811:	8b 45 10             	mov    0x10(%ebp),%eax
c0102814:	01 d0                	add    %edx,%eax
c0102816:	8b 00                	mov    (%eax),%eax
c0102818:	89 45 d8             	mov    %eax,-0x28(%ebp)
c010281b:	c7 45 f0 00 00 00 00 	movl   $0x0,-0x10(%ebp)
c0102822:	eb 48                	jmp    c010286c <vfprintf+0x226>
c0102824:	8b 45 d8             	mov    -0x28(%ebp),%eax
c0102827:	83 e0 0f             	and    $0xf,%eax
c010282a:	83 f8 09             	cmp    $0x9,%eax
c010282d:	77 1b                	ja     c010284a <vfprintf+0x204>
c010282f:	8b 45 f0             	mov    -0x10(%ebp),%eax
c0102832:	8d 50 01             	lea    0x1(%eax),%edx
c0102835:	89 55 f0             	mov    %edx,-0x10(%ebp)
c0102838:	8b 55 d8             	mov    -0x28(%ebp),%edx
c010283b:	83 e2 0f             	and    $0xf,%edx
c010283e:	83 c2 30             	add    $0x30,%edx
c0102841:	88 94 05 74 ff ff ff 	mov    %dl,-0x8c(%ebp,%eax,1)
c0102848:	eb 19                	jmp    c0102863 <vfprintf+0x21d>
c010284a:	8b 45 f0             	mov    -0x10(%ebp),%eax
c010284d:	8d 50 01             	lea    0x1(%eax),%edx
c0102850:	89 55 f0             	mov    %edx,-0x10(%ebp)
c0102853:	8b 55 d8             	mov    -0x28(%ebp),%edx
c0102856:	83 e2 0f             	and    $0xf,%edx
c0102859:	83 c2 57             	add    $0x57,%edx
c010285c:	88 94 05 74 ff ff ff 	mov    %dl,-0x8c(%ebp,%eax,1)
c0102863:	8b 45 d8             	mov    -0x28(%ebp),%eax
c0102866:	c1 e8 04             	shr    $0x4,%eax
c0102869:	89 45 d8             	mov    %eax,-0x28(%ebp)
c010286c:	83 7d d8 0f          	cmpl   $0xf,-0x28(%ebp)
c0102870:	77 b2                	ja     c0102824 <vfprintf+0x1de>
c0102872:	83 7d d8 09          	cmpl   $0x9,-0x28(%ebp)
c0102876:	77 17                	ja     c010288f <vfprintf+0x249>
c0102878:	8b 45 d8             	mov    -0x28(%ebp),%eax
c010287b:	83 c0 30             	add    $0x30,%eax
c010287e:	89 c1                	mov    %eax,%ecx
c0102880:	8d 95 74 ff ff ff    	lea    -0x8c(%ebp),%edx
c0102886:	8b 45 f0             	mov    -0x10(%ebp),%eax
c0102889:	01 d0                	add    %edx,%eax
c010288b:	88 08                	mov    %cl,(%eax)
c010288d:	eb 15                	jmp    c01028a4 <vfprintf+0x25e>
c010288f:	8b 45 d8             	mov    -0x28(%ebp),%eax
c0102892:	83 c0 57             	add    $0x57,%eax
c0102895:	89 c1                	mov    %eax,%ecx
c0102897:	8d 95 74 ff ff ff    	lea    -0x8c(%ebp),%edx
c010289d:	8b 45 f0             	mov    -0x10(%ebp),%eax
c01028a0:	01 d0                	add    %edx,%eax
c01028a2:	88 08                	mov    %cl,(%eax)
c01028a4:	8b 45 f0             	mov    -0x10(%ebp),%eax
c01028a7:	89 45 ec             	mov    %eax,-0x14(%ebp)
c01028aa:	eb 21                	jmp    c01028cd <vfprintf+0x287>
c01028ac:	8d 95 74 ff ff ff    	lea    -0x8c(%ebp),%edx
c01028b2:	8b 45 ec             	mov    -0x14(%ebp),%eax
c01028b5:	01 d0                	add    %edx,%eax
c01028b7:	0f b6 00             	movzbl (%eax),%eax
c01028ba:	0f be c0             	movsbl %al,%eax
c01028bd:	83 ec 0c             	sub    $0xc,%esp
c01028c0:	50                   	push   %eax
c01028c1:	8b 45 08             	mov    0x8(%ebp),%eax
c01028c4:	ff d0                	call   *%eax
c01028c6:	83 c4 10             	add    $0x10,%esp
c01028c9:	83 6d ec 01          	subl   $0x1,-0x14(%ebp)
c01028cd:	83 7d ec 00          	cmpl   $0x0,-0x14(%ebp)
c01028d1:	79 d9                	jns    c01028ac <vfprintf+0x266>
c01028d3:	e9 83 00 00 00       	jmp    c010295b <vfprintf+0x315>
c01028d8:	c7 45 f0 00 00 00 00 	movl   $0x0,-0x10(%ebp)
c01028df:	eb 2c                	jmp    c010290d <vfprintf+0x2c7>
c01028e1:	8b 45 f4             	mov    -0xc(%ebp),%eax
c01028e4:	8d 14 85 00 00 00 00 	lea    0x0(,%eax,4),%edx
c01028eb:	8b 45 10             	mov    0x10(%ebp),%eax
c01028ee:	01 d0                	add    %edx,%eax
c01028f0:	8b 10                	mov    (%eax),%edx
c01028f2:	8b 45 f0             	mov    -0x10(%ebp),%eax
c01028f5:	01 d0                	add    %edx,%eax
c01028f7:	0f b6 00             	movzbl (%eax),%eax
c01028fa:	0f be c0             	movsbl %al,%eax
c01028fd:	83 ec 0c             	sub    $0xc,%esp
c0102900:	50                   	push   %eax
c0102901:	8b 45 08             	mov    0x8(%ebp),%eax
c0102904:	ff d0                	call   *%eax
c0102906:	83 c4 10             	add    $0x10,%esp
c0102909:	83 45 f0 01          	addl   $0x1,-0x10(%ebp)
c010290d:	8b 45 f4             	mov    -0xc(%ebp),%eax
c0102910:	8d 14 85 00 00 00 00 	lea    0x0(,%eax,4),%edx
c0102917:	8b 45 10             	mov    0x10(%ebp),%eax
c010291a:	01 d0                	add    %edx,%eax
c010291c:	8b 10                	mov    (%eax),%edx
c010291e:	8b 45 f0             	mov    -0x10(%ebp),%eax
c0102921:	01 d0                	add    %edx,%eax
c0102923:	0f b6 00             	movzbl (%eax),%eax
c0102926:	84 c0                	test   %al,%al
c0102928:	75 b7                	jne    c01028e1 <vfprintf+0x29b>
c010292a:	eb 2f                	jmp    c010295b <vfprintf+0x315>
c010292c:	8b 45 f4             	mov    -0xc(%ebp),%eax
c010292f:	c1 e0 02             	shl    $0x2,%eax
c0102932:	89 c2                	mov    %eax,%edx
c0102934:	8b 45 10             	mov    0x10(%ebp),%eax
c0102937:	01 d0                	add    %edx,%eax
c0102939:	0f b6 00             	movzbl (%eax),%eax
c010293c:	0f be c0             	movsbl %al,%eax
c010293f:	83 ec 0c             	sub    $0xc,%esp
c0102942:	50                   	push   %eax
c0102943:	8b 45 08             	mov    0x8(%ebp),%eax
c0102946:	ff d0                	call   *%eax
c0102948:	83 c4 10             	add    $0x10,%esp
c010294b:	eb 0e                	jmp    c010295b <vfprintf+0x315>
c010294d:	83 ec 0c             	sub    $0xc,%esp
c0102950:	6a 25                	push   $0x25
c0102952:	8b 45 08             	mov    0x8(%ebp),%eax
c0102955:	ff d0                	call   *%eax
c0102957:	83 c4 10             	add    $0x10,%esp
c010295a:	90                   	nop
c010295b:	83 45 f4 01          	addl   $0x1,-0xc(%ebp)
c010295f:	8b 45 0c             	mov    0xc(%ebp),%eax
c0102962:	8d 50 01             	lea    0x1(%eax),%edx
c0102965:	89 55 0c             	mov    %edx,0xc(%ebp)
c0102968:	0f b6 00             	movzbl (%eax),%eax
c010296b:	88 45 eb             	mov    %al,-0x15(%ebp)
c010296e:	c7 45 e4 00 00 00 00 	movl   $0x0,-0x1c(%ebp)
c0102975:	eb 01                	jmp    c0102978 <vfprintf+0x332>
c0102977:	90                   	nop
c0102978:	83 7d e4 07          	cmpl   $0x7,-0x1c(%ebp)
c010297c:	0f 85 f4 fc ff ff    	jne    c0102676 <vfprintf+0x30>
c0102982:	8b 5d fc             	mov    -0x4(%ebp),%ebx
c0102985:	c9                   	leave  
c0102986:	c3                   	ret    

c0102987 <printk>:
c0102987:	55                   	push   %ebp
c0102988:	89 e5                	mov    %esp,%ebp
c010298a:	83 ec 18             	sub    $0x18,%esp
c010298d:	8d 45 0c             	lea    0xc(%ebp),%eax
c0102990:	89 45 f4             	mov    %eax,-0xc(%ebp)
c0102993:	8b 45 08             	mov    0x8(%ebp),%eax
c0102996:	83 ec 04             	sub    $0x4,%esp
c0102999:	ff 75 f4             	pushl  -0xc(%ebp)
c010299c:	50                   	push   %eax
c010299d:	68 dc 53 10 c0       	push   $0xc01053dc
c01029a2:	e8 9f fc ff ff       	call   c0102646 <vfprintf>
c01029a7:	83 c4 10             	add    $0x10,%esp
c01029aa:	c9                   	leave  
c01029ab:	c3                   	ret    

c01029ac <wait_for_interrupt>:
c01029ac:	55                   	push   %ebp
c01029ad:	89 e5                	mov    %esp,%ebp
c01029af:	f4                   	hlt    
c01029b0:	5d                   	pop    %ebp
c01029b1:	c3                   	ret    

c01029b2 <disable_interrupt>:
c01029b2:	55                   	push   %ebp
c01029b3:	89 e5                	mov    %esp,%ebp
c01029b5:	b8 06 00 00 00       	mov    $0x6,%eax
c01029ba:	cd 80                	int    $0x80
c01029bc:	5d                   	pop    %ebp
c01029bd:	c3                   	ret    

c01029be <append>:
c01029be:	55                   	push   %ebp
c01029bf:	89 e5                	mov    %esp,%ebp
c01029c1:	eb 1b                	jmp    c01029de <append+0x20>
c01029c3:	8b 45 08             	mov    0x8(%ebp),%eax
c01029c6:	8b 00                	mov    (%eax),%eax
c01029c8:	8d 48 01             	lea    0x1(%eax),%ecx
c01029cb:	8b 55 08             	mov    0x8(%ebp),%edx
c01029ce:	89 0a                	mov    %ecx,(%edx)
c01029d0:	8b 55 0c             	mov    0xc(%ebp),%edx
c01029d3:	8d 4a 01             	lea    0x1(%edx),%ecx
c01029d6:	89 4d 0c             	mov    %ecx,0xc(%ebp)
c01029d9:	0f b6 12             	movzbl (%edx),%edx
c01029dc:	88 10                	mov    %dl,(%eax)
c01029de:	8b 45 0c             	mov    0xc(%ebp),%eax
c01029e1:	0f b6 00             	movzbl (%eax),%eax
c01029e4:	84 c0                	test   %al,%al
c01029e6:	75 db                	jne    c01029c3 <append+0x5>
c01029e8:	5d                   	pop    %ebp
c01029e9:	c3                   	ret    

c01029ea <blue_screen>:
c01029ea:	55                   	push   %ebp
c01029eb:	89 e5                	mov    %esp,%ebp
c01029ed:	83 ec 18             	sub    $0x18,%esp
c01029f0:	c7 45 f4 d2 95 10 c0 	movl   $0xc01095d2,-0xc(%ebp)
c01029f7:	ff 75 08             	pushl  0x8(%ebp)
c01029fa:	8d 45 f4             	lea    -0xc(%ebp),%eax
c01029fd:	50                   	push   %eax
c01029fe:	e8 bb ff ff ff       	call   c01029be <append>
c0102a03:	83 c4 08             	add    $0x8,%esp
c0102a06:	68 8a 70 10 c0       	push   $0xc010708a
c0102a0b:	8d 45 f4             	lea    -0xc(%ebp),%eax
c0102a0e:	50                   	push   %eax
c0102a0f:	e8 aa ff ff ff       	call   c01029be <append>
c0102a14:	83 c4 08             	add    $0x8,%esp
c0102a17:	83 ec 0c             	sub    $0xc,%esp
c0102a1a:	ff 75 0c             	pushl  0xc(%ebp)
c0102a1d:	e8 77 fa ff ff       	call   c0102499 <itoa>
c0102a22:	83 c4 10             	add    $0x10,%esp
c0102a25:	83 ec 08             	sub    $0x8,%esp
c0102a28:	50                   	push   %eax
c0102a29:	8d 45 f4             	lea    -0xc(%ebp),%eax
c0102a2c:	50                   	push   %eax
c0102a2d:	e8 8c ff ff ff       	call   c01029be <append>
c0102a32:	83 c4 10             	add    $0x10,%esp
c0102a35:	e8 67 2a 00 00       	call   c01054a1 <prepare_buffer>
c0102a3a:	a1 00 c4 10 c0       	mov    0xc010c400,%eax
c0102a3f:	83 ec 04             	sub    $0x4,%esp
c0102a42:	68 00 fa 00 00       	push   $0xfa00
c0102a47:	6a 01                	push   $0x1
c0102a49:	50                   	push   %eax
c0102a4a:	e8 cd fa ff ff       	call   c010251c <memset>
c0102a4f:	83 c4 10             	add    $0x10,%esp
c0102a52:	6a 0f                	push   $0xf
c0102a54:	6a 00                	push   $0x0
c0102a56:	6a 00                	push   $0x0
c0102a58:	68 c0 95 10 c0       	push   $0xc01095c0
c0102a5d:	e8 a1 2b 00 00       	call   c0105603 <draw_string>
c0102a62:	83 c4 10             	add    $0x10,%esp
c0102a65:	e8 7b 2a 00 00       	call   c01054e5 <display_buffer>
c0102a6a:	c9                   	leave  
c0102a6b:	c3                   	ret    

c0102a6c <abort>:
c0102a6c:	55                   	push   %ebp
c0102a6d:	89 e5                	mov    %esp,%ebp
c0102a6f:	83 ec 08             	sub    $0x8,%esp
c0102a72:	e8 3b ff ff ff       	call   c01029b2 <disable_interrupt>
c0102a77:	83 ec 08             	sub    $0x8,%esp
c0102a7a:	ff 75 0c             	pushl  0xc(%ebp)
c0102a7d:	ff 75 08             	pushl  0x8(%ebp)
c0102a80:	e8 65 ff ff ff       	call   c01029ea <blue_screen>
c0102a85:	83 c4 10             	add    $0x10,%esp
c0102a88:	e8 1f ff ff ff       	call   c01029ac <wait_for_interrupt>
c0102a8d:	eb f9                	jmp    c0102a88 <abort+0x1c>

c0102a8f <lgdt>:
c0102a8f:	55                   	push   %ebp
c0102a90:	89 e5                	mov    %esp,%ebp
c0102a92:	8b 45 08             	mov    0x8(%ebp),%eax
c0102a95:	0f 01 10             	lgdtl  (%eax)
c0102a98:	5d                   	pop    %ebp
c0102a99:	c3                   	ret    

c0102a9a <_paddr>:
c0102a9a:	55                   	push   %ebp
c0102a9b:	89 e5                	mov    %esp,%ebp
c0102a9d:	8b 45 10             	mov    0x10(%ebp),%eax
c0102aa0:	05 00 00 00 40       	add    $0x40000000,%eax
c0102aa5:	5d                   	pop    %ebp
c0102aa6:	c3                   	ret    

c0102aa7 <_kaddr>:
c0102aa7:	55                   	push   %ebp
c0102aa8:	89 e5                	mov    %esp,%ebp
c0102aaa:	8b 45 10             	mov    0x10(%ebp),%eax
c0102aad:	2d 00 00 00 40       	sub    $0x40000000,%eax
c0102ab2:	5d                   	pop    %ebp
c0102ab3:	c3                   	ret    

c0102ab4 <page2pa>:
c0102ab4:	55                   	push   %ebp
c0102ab5:	89 e5                	mov    %esp,%ebp
c0102ab7:	8b 45 08             	mov    0x8(%ebp),%eax
c0102aba:	8b 15 64 7b 16 c0    	mov    0xc0167b64,%edx
c0102ac0:	29 d0                	sub    %edx,%eax
c0102ac2:	c1 f8 03             	sar    $0x3,%eax
c0102ac5:	c1 e0 0c             	shl    $0xc,%eax
c0102ac8:	5d                   	pop    %ebp
c0102ac9:	c3                   	ret    

c0102aca <pa2page>:
c0102aca:	55                   	push   %ebp
c0102acb:	89 e5                	mov    %esp,%ebp
c0102acd:	a1 64 7b 16 c0       	mov    0xc0167b64,%eax
c0102ad2:	8b 55 08             	mov    0x8(%ebp),%edx
c0102ad5:	c1 ea 0c             	shr    $0xc,%edx
c0102ad8:	c1 e2 03             	shl    $0x3,%edx
c0102adb:	01 d0                	add    %edx,%eax
c0102add:	5d                   	pop    %ebp
c0102ade:	c3                   	ret    

c0102adf <page2kva>:
c0102adf:	55                   	push   %ebp
c0102ae0:	89 e5                	mov    %esp,%ebp
c0102ae2:	ff 75 08             	pushl  0x8(%ebp)
c0102ae5:	e8 ca ff ff ff       	call   c0102ab4 <page2pa>
c0102aea:	83 c4 04             	add    $0x4,%esp
c0102aed:	50                   	push   %eax
c0102aee:	6a 52                	push   $0x52
c0102af0:	68 8c 70 10 c0       	push   $0xc010708c
c0102af5:	e8 ad ff ff ff       	call   c0102aa7 <_kaddr>
c0102afa:	83 c4 0c             	add    $0xc,%esp
c0102afd:	c9                   	leave  
c0102afe:	c3                   	ret    

c0102aff <list_init>:
c0102aff:	55                   	push   %ebp
c0102b00:	89 e5                	mov    %esp,%ebp
c0102b02:	8b 45 08             	mov    0x8(%ebp),%eax
c0102b05:	8b 55 08             	mov    0x8(%ebp),%edx
c0102b08:	89 50 04             	mov    %edx,0x4(%eax)
c0102b0b:	8b 45 08             	mov    0x8(%ebp),%eax
c0102b0e:	8b 50 04             	mov    0x4(%eax),%edx
c0102b11:	8b 45 08             	mov    0x8(%ebp),%eax
c0102b14:	89 10                	mov    %edx,(%eax)
c0102b16:	5d                   	pop    %ebp
c0102b17:	c3                   	ret    

c0102b18 <env_init>:
c0102b18:	55                   	push   %ebp
c0102b19:	89 e5                	mov    %esp,%ebp
c0102b1b:	83 ec 18             	sub    $0x18,%esp
c0102b1e:	83 ec 08             	sub    $0x8,%esp
c0102b21:	6a 20                	push   $0x20
c0102b23:	68 a1 70 10 c0       	push   $0xc01070a1
c0102b28:	e8 5a fe ff ff       	call   c0102987 <printk>
c0102b2d:	83 c4 10             	add    $0x10,%esp
c0102b30:	c7 45 f4 1f 00 00 00 	movl   $0x1f,-0xc(%ebp)
c0102b37:	e9 14 01 00 00       	jmp    c0102c50 <env_init+0x138>
c0102b3c:	8b 15 40 57 11 c0    	mov    0xc0115740,%edx
c0102b42:	8b 45 f4             	mov    -0xc(%ebp),%eax
c0102b45:	c1 e0 04             	shl    $0x4,%eax
c0102b48:	89 c1                	mov    %eax,%ecx
c0102b4a:	c1 e1 04             	shl    $0x4,%ecx
c0102b4d:	29 c1                	sub    %eax,%ecx
c0102b4f:	89 c8                	mov    %ecx,%eax
c0102b51:	01 d0                	add    %edx,%eax
c0102b53:	c7 40 4c 00 00 00 00 	movl   $0x0,0x4c(%eax)
c0102b5a:	8b 15 40 57 11 c0    	mov    0xc0115740,%edx
c0102b60:	8b 45 f4             	mov    -0xc(%ebp),%eax
c0102b63:	c1 e0 04             	shl    $0x4,%eax
c0102b66:	89 c1                	mov    %eax,%ecx
c0102b68:	c1 e1 04             	shl    $0x4,%ecx
c0102b6b:	29 c1                	sub    %eax,%ecx
c0102b6d:	89 c8                	mov    %ecx,%eax
c0102b6f:	01 d0                	add    %edx,%eax
c0102b71:	c7 40 50 00 00 00 00 	movl   $0x0,0x50(%eax)
c0102b78:	8b 15 40 57 11 c0    	mov    0xc0115740,%edx
c0102b7e:	8b 45 f4             	mov    -0xc(%ebp),%eax
c0102b81:	c1 e0 04             	shl    $0x4,%eax
c0102b84:	89 c1                	mov    %eax,%ecx
c0102b86:	c1 e1 04             	shl    $0x4,%ecx
c0102b89:	29 c1                	sub    %eax,%ecx
c0102b8b:	89 c8                	mov    %ecx,%eax
c0102b8d:	01 d0                	add    %edx,%eax
c0102b8f:	c7 40 54 02 00 00 00 	movl   $0x2,0x54(%eax)
c0102b96:	8b 15 40 57 11 c0    	mov    0xc0115740,%edx
c0102b9c:	8b 45 f4             	mov    -0xc(%ebp),%eax
c0102b9f:	c1 e0 04             	shl    $0x4,%eax
c0102ba2:	89 c1                	mov    %eax,%ecx
c0102ba4:	c1 e1 04             	shl    $0x4,%ecx
c0102ba7:	29 c1                	sub    %eax,%ecx
c0102ba9:	89 c8                	mov    %ecx,%eax
c0102bab:	01 d0                	add    %edx,%eax
c0102bad:	c7 40 58 00 00 00 00 	movl   $0x0,0x58(%eax)
c0102bb4:	8b 15 40 57 11 c0    	mov    0xc0115740,%edx
c0102bba:	8b 45 f4             	mov    -0xc(%ebp),%eax
c0102bbd:	c1 e0 04             	shl    $0x4,%eax
c0102bc0:	89 c1                	mov    %eax,%ecx
c0102bc2:	c1 e1 04             	shl    $0x4,%ecx
c0102bc5:	29 c1                	sub    %eax,%ecx
c0102bc7:	89 c8                	mov    %ecx,%eax
c0102bc9:	01 d0                	add    %edx,%eax
c0102bcb:	c7 40 5c 00 00 00 00 	movl   $0x0,0x5c(%eax)
c0102bd2:	8b 15 40 57 11 c0    	mov    0xc0115740,%edx
c0102bd8:	8b 45 f4             	mov    -0xc(%ebp),%eax
c0102bdb:	c1 e0 04             	shl    $0x4,%eax
c0102bde:	89 c1                	mov    %eax,%ecx
c0102be0:	c1 e1 04             	shl    $0x4,%ecx
c0102be3:	29 c1                	sub    %eax,%ecx
c0102be5:	89 c8                	mov    %ecx,%eax
c0102be7:	01 d0                	add    %edx,%eax
c0102be9:	c7 80 ec 00 00 00 00 	movl   $0x0,0xec(%eax)
c0102bf0:	00 00 00 
c0102bf3:	8b 15 40 57 11 c0    	mov    0xc0115740,%edx
c0102bf9:	8b 45 f4             	mov    -0xc(%ebp),%eax
c0102bfc:	c1 e0 04             	shl    $0x4,%eax
c0102bff:	89 c1                	mov    %eax,%ecx
c0102c01:	c1 e1 04             	shl    $0x4,%ecx
c0102c04:	29 c1                	sub    %eax,%ecx
c0102c06:	89 c8                	mov    %ecx,%eax
c0102c08:	01 c2                	add    %eax,%edx
c0102c0a:	a1 4c 57 11 c0       	mov    0xc011574c,%eax
c0102c0f:	89 42 48             	mov    %eax,0x48(%edx)
c0102c12:	8b 15 40 57 11 c0    	mov    0xc0115740,%edx
c0102c18:	8b 45 f4             	mov    -0xc(%ebp),%eax
c0102c1b:	c1 e0 04             	shl    $0x4,%eax
c0102c1e:	89 c1                	mov    %eax,%ecx
c0102c20:	c1 e1 04             	shl    $0x4,%ecx
c0102c23:	29 c1                	sub    %eax,%ecx
c0102c25:	89 c8                	mov    %ecx,%eax
c0102c27:	01 d0                	add    %edx,%eax
c0102c29:	c7 40 68 00 00 00 00 	movl   $0x0,0x68(%eax)
c0102c30:	8b 15 40 57 11 c0    	mov    0xc0115740,%edx
c0102c36:	8b 45 f4             	mov    -0xc(%ebp),%eax
c0102c39:	c1 e0 04             	shl    $0x4,%eax
c0102c3c:	89 c1                	mov    %eax,%ecx
c0102c3e:	c1 e1 04             	shl    $0x4,%ecx
c0102c41:	29 c1                	sub    %eax,%ecx
c0102c43:	89 c8                	mov    %ecx,%eax
c0102c45:	01 d0                	add    %edx,%eax
c0102c47:	a3 4c 57 11 c0       	mov    %eax,0xc011574c
c0102c4c:	83 6d f4 01          	subl   $0x1,-0xc(%ebp)
c0102c50:	83 7d f4 00          	cmpl   $0x0,-0xc(%ebp)
c0102c54:	0f 89 e2 fe ff ff    	jns    c0102b3c <env_init+0x24>
c0102c5a:	a1 40 57 11 c0       	mov    0xc0115740,%eax
c0102c5f:	05 10 1d 00 00       	add    $0x1d10,%eax
c0102c64:	a3 44 57 11 c0       	mov    %eax,0xc0115744
c0102c69:	e8 27 00 00 00       	call   c0102c95 <env_init_percpu>
c0102c6e:	e8 30 04 00 00       	call   c01030a3 <set_tss>
c0102c73:	83 ec 0c             	sub    $0xc,%esp
c0102c76:	68 84 7a 16 c0       	push   $0xc0167a84
c0102c7b:	e8 7f fe ff ff       	call   c0102aff <list_init>
c0102c80:	83 c4 10             	add    $0x10,%esp
c0102c83:	83 ec 0c             	sub    $0xc,%esp
c0102c86:	68 8c 7a 16 c0       	push   $0xc0167a8c
c0102c8b:	e8 6f fe ff ff       	call   c0102aff <list_init>
c0102c90:	83 c4 10             	add    $0x10,%esp
c0102c93:	c9                   	leave  
c0102c94:	c3                   	ret    

c0102c95 <env_init_percpu>:
c0102c95:	55                   	push   %ebp
c0102c96:	89 e5                	mov    %esp,%ebp
c0102c98:	83 ec 10             	sub    $0x10,%esp
c0102c9b:	68 f0 96 10 c0       	push   $0xc01096f0
c0102ca0:	e8 ea fd ff ff       	call   c0102a8f <lgdt>
c0102ca5:	83 c4 04             	add    $0x4,%esp
c0102ca8:	b8 23 00 00 00       	mov    $0x23,%eax
c0102cad:	8e e8                	mov    %eax,%gs
c0102caf:	b8 23 00 00 00       	mov    $0x23,%eax
c0102cb4:	8e e0                	mov    %eax,%fs
c0102cb6:	b8 10 00 00 00       	mov    $0x10,%eax
c0102cbb:	8e c0                	mov    %eax,%es
c0102cbd:	b8 10 00 00 00       	mov    $0x10,%eax
c0102cc2:	8e d8                	mov    %eax,%ds
c0102cc4:	b8 10 00 00 00       	mov    $0x10,%eax
c0102cc9:	8e d0                	mov    %eax,%ss
c0102ccb:	ea d2 2c 10 c0 08 00 	ljmp   $0x8,$0xc0102cd2
c0102cd2:	66 c7 45 fe 00 00    	movw   $0x0,-0x2(%ebp)
c0102cd8:	0f b7 45 fe          	movzwl -0x2(%ebp),%eax
c0102cdc:	0f 00 d0             	lldt   %ax
c0102cdf:	c9                   	leave  
c0102ce0:	c3                   	ret    

c0102ce1 <env_setup_vm>:
c0102ce1:	55                   	push   %ebp
c0102ce2:	89 e5                	mov    %esp,%ebp
c0102ce4:	53                   	push   %ebx
c0102ce5:	83 ec 14             	sub    $0x14,%esp
c0102ce8:	c7 45 f4 00 00 00 00 	movl   $0x0,-0xc(%ebp)
c0102cef:	83 ec 0c             	sub    $0xc,%esp
c0102cf2:	6a 01                	push   $0x1
c0102cf4:	e8 33 1a 00 00       	call   c010472c <page_alloc>
c0102cf9:	83 c4 10             	add    $0x10,%esp
c0102cfc:	89 45 f4             	mov    %eax,-0xc(%ebp)
c0102cff:	83 7d f4 00          	cmpl   $0x0,-0xc(%ebp)
c0102d03:	75 0a                	jne    c0102d0f <env_setup_vm+0x2e>
c0102d05:	b8 fc ff ff ff       	mov    $0xfffffffc,%eax
c0102d0a:	e9 83 00 00 00       	jmp    c0102d92 <env_setup_vm+0xb1>
c0102d0f:	83 ec 0c             	sub    $0xc,%esp
c0102d12:	ff 75 f4             	pushl  -0xc(%ebp)
c0102d15:	e8 c5 fd ff ff       	call   c0102adf <page2kva>
c0102d1a:	83 c4 10             	add    $0x10,%esp
c0102d1d:	89 c2                	mov    %eax,%edx
c0102d1f:	8b 45 08             	mov    0x8(%ebp),%eax
c0102d22:	89 90 ec 00 00 00    	mov    %edx,0xec(%eax)
c0102d28:	8b 45 f4             	mov    -0xc(%ebp),%eax
c0102d2b:	0f b7 40 04          	movzwl 0x4(%eax),%eax
c0102d2f:	8d 50 01             	lea    0x1(%eax),%edx
c0102d32:	8b 45 f4             	mov    -0xc(%ebp),%eax
c0102d35:	66 89 50 04          	mov    %dx,0x4(%eax)
c0102d39:	8b 15 60 7b 16 c0    	mov    0xc0167b60,%edx
c0102d3f:	8b 45 08             	mov    0x8(%ebp),%eax
c0102d42:	8b 80 ec 00 00 00    	mov    0xec(%eax),%eax
c0102d48:	83 ec 04             	sub    $0x4,%esp
c0102d4b:	68 00 10 00 00       	push   $0x1000
c0102d50:	52                   	push   %edx
c0102d51:	50                   	push   %eax
c0102d52:	e8 a8 f7 ff ff       	call   c01024ff <memcpy>
c0102d57:	83 c4 10             	add    $0x10,%esp
c0102d5a:	8b 45 08             	mov    0x8(%ebp),%eax
c0102d5d:	8b 80 ec 00 00 00    	mov    0xec(%eax),%eax
c0102d63:	8d 98 f4 0b 00 00    	lea    0xbf4(%eax),%ebx
c0102d69:	8b 45 08             	mov    0x8(%ebp),%eax
c0102d6c:	8b 80 ec 00 00 00    	mov    0xec(%eax),%eax
c0102d72:	83 ec 04             	sub    $0x4,%esp
c0102d75:	50                   	push   %eax
c0102d76:	68 8d 00 00 00       	push   $0x8d
c0102d7b:	68 a5 70 10 c0       	push   $0xc01070a5
c0102d80:	e8 15 fd ff ff       	call   c0102a9a <_paddr>
c0102d85:	83 c4 10             	add    $0x10,%esp
c0102d88:	83 c8 05             	or     $0x5,%eax
c0102d8b:	89 03                	mov    %eax,(%ebx)
c0102d8d:	b8 00 00 00 00       	mov    $0x0,%eax
c0102d92:	8b 5d fc             	mov    -0x4(%ebp),%ebx
c0102d95:	c9                   	leave  
c0102d96:	c3                   	ret    

c0102d97 <set_tf>:
c0102d97:	55                   	push   %ebp
c0102d98:	89 e5                	mov    %esp,%ebp
c0102d9a:	83 ec 08             	sub    $0x8,%esp
c0102d9d:	8b 45 08             	mov    0x8(%ebp),%eax
c0102da0:	83 ec 04             	sub    $0x4,%esp
c0102da3:	6a 48                	push   $0x48
c0102da5:	6a 00                	push   $0x0
c0102da7:	50                   	push   %eax
c0102da8:	e8 6f f7 ff ff       	call   c010251c <memset>
c0102dad:	83 c4 10             	add    $0x10,%esp
c0102db0:	8b 45 08             	mov    0x8(%ebp),%eax
c0102db3:	66 c7 40 24 23 00    	movw   $0x23,0x24(%eax)
c0102db9:	8b 45 08             	mov    0x8(%ebp),%eax
c0102dbc:	66 c7 40 20 23 00    	movw   $0x23,0x20(%eax)
c0102dc2:	8b 45 08             	mov    0x8(%ebp),%eax
c0102dc5:	c7 40 40 23 00 00 00 	movl   $0x23,0x40(%eax)
c0102dcc:	8b 45 08             	mov    0x8(%ebp),%eax
c0102dcf:	c7 40 3c 00 e0 bf be 	movl   $0xbebfe000,0x3c(%eax)
c0102dd6:	8b 45 08             	mov    0x8(%ebp),%eax
c0102dd9:	66 c7 40 34 1b 00    	movw   $0x1b,0x34(%eax)
c0102ddf:	8b 45 08             	mov    0x8(%ebp),%eax
c0102de2:	c7 40 38 02 02 00 00 	movl   $0x202,0x38(%eax)
c0102de9:	c9                   	leave  
c0102dea:	c3                   	ret    

c0102deb <env_alloc>:
c0102deb:	55                   	push   %ebp
c0102dec:	89 e5                	mov    %esp,%ebp
c0102dee:	83 ec 18             	sub    $0x18,%esp
c0102df1:	a1 4c 57 11 c0       	mov    0xc011574c,%eax
c0102df6:	89 45 f0             	mov    %eax,-0x10(%ebp)
c0102df9:	83 7d f0 00          	cmpl   $0x0,-0x10(%ebp)
c0102dfd:	75 0a                	jne    c0102e09 <env_alloc+0x1e>
c0102dff:	b8 fb ff ff ff       	mov    $0xfffffffb,%eax
c0102e04:	e9 a9 00 00 00       	jmp    c0102eb2 <env_alloc+0xc7>
c0102e09:	83 ec 0c             	sub    $0xc,%esp
c0102e0c:	ff 75 f0             	pushl  -0x10(%ebp)
c0102e0f:	e8 cd fe ff ff       	call   c0102ce1 <env_setup_vm>
c0102e14:	83 c4 10             	add    $0x10,%esp
c0102e17:	89 45 ec             	mov    %eax,-0x14(%ebp)
c0102e1a:	83 7d ec 00          	cmpl   $0x0,-0x14(%ebp)
c0102e1e:	79 08                	jns    c0102e28 <env_alloc+0x3d>
c0102e20:	8b 45 ec             	mov    -0x14(%ebp),%eax
c0102e23:	e9 8a 00 00 00       	jmp    c0102eb2 <env_alloc+0xc7>
c0102e28:	8b 45 f0             	mov    -0x10(%ebp),%eax
c0102e2b:	8b 40 4c             	mov    0x4c(%eax),%eax
c0102e2e:	05 00 10 00 00       	add    $0x1000,%eax
c0102e33:	83 e0 e0             	and    $0xffffffe0,%eax
c0102e36:	89 45 f4             	mov    %eax,-0xc(%ebp)
c0102e39:	83 7d f4 00          	cmpl   $0x0,-0xc(%ebp)
c0102e3d:	7f 07                	jg     c0102e46 <env_alloc+0x5b>
c0102e3f:	c7 45 f4 00 10 00 00 	movl   $0x1000,-0xc(%ebp)
c0102e46:	8b 45 f0             	mov    -0x10(%ebp),%eax
c0102e49:	8b 15 40 57 11 c0    	mov    0xc0115740,%edx
c0102e4f:	29 d0                	sub    %edx,%eax
c0102e51:	c1 f8 04             	sar    $0x4,%eax
c0102e54:	69 c0 ef ee ee ee    	imul   $0xeeeeeeef,%eax,%eax
c0102e5a:	0b 45 f4             	or     -0xc(%ebp),%eax
c0102e5d:	89 c2                	mov    %eax,%edx
c0102e5f:	8b 45 f0             	mov    -0x10(%ebp),%eax
c0102e62:	89 50 4c             	mov    %edx,0x4c(%eax)
c0102e65:	8b 45 f0             	mov    -0x10(%ebp),%eax
c0102e68:	8b 55 0c             	mov    0xc(%ebp),%edx
c0102e6b:	89 50 50             	mov    %edx,0x50(%eax)
c0102e6e:	8b 45 f0             	mov    -0x10(%ebp),%eax
c0102e71:	c7 40 54 00 00 00 00 	movl   $0x0,0x54(%eax)
c0102e78:	8b 45 f0             	mov    -0x10(%ebp),%eax
c0102e7b:	c7 40 58 01 00 00 00 	movl   $0x1,0x58(%eax)
c0102e82:	8b 45 f0             	mov    -0x10(%ebp),%eax
c0102e85:	c7 40 5c 00 00 00 00 	movl   $0x0,0x5c(%eax)
c0102e8c:	83 ec 0c             	sub    $0xc,%esp
c0102e8f:	ff 75 f0             	pushl  -0x10(%ebp)
c0102e92:	e8 00 ff ff ff       	call   c0102d97 <set_tf>
c0102e97:	83 c4 10             	add    $0x10,%esp
c0102e9a:	8b 45 f0             	mov    -0x10(%ebp),%eax
c0102e9d:	8b 40 48             	mov    0x48(%eax),%eax
c0102ea0:	a3 4c 57 11 c0       	mov    %eax,0xc011574c
c0102ea5:	8b 45 08             	mov    0x8(%ebp),%eax
c0102ea8:	8b 55 f0             	mov    -0x10(%ebp),%edx
c0102eab:	89 10                	mov    %edx,(%eax)
c0102ead:	b8 00 00 00 00       	mov    $0x0,%eax
c0102eb2:	c9                   	leave  
c0102eb3:	c3                   	ret    

c0102eb4 <env_pop_tf>:
c0102eb4:	55                   	push   %ebp
c0102eb5:	89 e5                	mov    %esp,%ebp
c0102eb7:	8b 45 08             	mov    0x8(%ebp),%eax
c0102eba:	89 c4                	mov    %eax,%esp
c0102ebc:	61                   	popa   
c0102ebd:	07                   	pop    %es
c0102ebe:	1f                   	pop    %ds
c0102ebf:	83 c4 08             	add    $0x8,%esp
c0102ec2:	cf                   	iret   
c0102ec3:	eb fe                	jmp    c0102ec3 <env_pop_tf+0xf>

c0102ec5 <load_icode>:
c0102ec5:	55                   	push   %ebp
c0102ec6:	89 e5                	mov    %esp,%ebp
c0102ec8:	83 ec 18             	sub    $0x18,%esp
c0102ecb:	8b 45 08             	mov    0x8(%ebp),%eax
c0102ece:	8b 80 ec 00 00 00    	mov    0xec(%eax),%eax
c0102ed4:	50                   	push   %eax
c0102ed5:	68 cf 00 00 00       	push   $0xcf
c0102eda:	68 a5 70 10 c0       	push   $0xc01070a5
c0102edf:	e8 b6 fb ff ff       	call   c0102a9a <_paddr>
c0102ee4:	83 c4 0c             	add    $0xc,%esp
c0102ee7:	89 45 f4             	mov    %eax,-0xc(%ebp)
c0102eea:	8b 45 f4             	mov    -0xc(%ebp),%eax
c0102eed:	0f 22 d8             	mov    %eax,%cr3
c0102ef0:	8b 45 08             	mov    0x8(%ebp),%eax
c0102ef3:	8b 80 ec 00 00 00    	mov    0xec(%eax),%eax
c0102ef9:	83 ec 0c             	sub    $0xc,%esp
c0102efc:	50                   	push   %eax
c0102efd:	e8 89 0d 00 00       	call   c0103c8b <bootmain2>
c0102f02:	83 c4 10             	add    $0x10,%esp
c0102f05:	89 c2                	mov    %eax,%edx
c0102f07:	8b 45 08             	mov    0x8(%ebp),%eax
c0102f0a:	89 50 30             	mov    %edx,0x30(%eax)
c0102f0d:	a1 60 7b 16 c0       	mov    0xc0167b60,%eax
c0102f12:	83 ec 04             	sub    $0x4,%esp
c0102f15:	50                   	push   %eax
c0102f16:	68 d1 00 00 00       	push   $0xd1
c0102f1b:	68 a5 70 10 c0       	push   $0xc01070a5
c0102f20:	e8 75 fb ff ff       	call   c0102a9a <_paddr>
c0102f25:	83 c4 10             	add    $0x10,%esp
c0102f28:	89 45 f0             	mov    %eax,-0x10(%ebp)
c0102f2b:	8b 45 f0             	mov    -0x10(%ebp),%eax
c0102f2e:	0f 22 d8             	mov    %eax,%cr3
c0102f31:	c9                   	leave  
c0102f32:	c3                   	ret    

c0102f33 <env_create>:
c0102f33:	55                   	push   %ebp
c0102f34:	89 e5                	mov    %esp,%ebp
c0102f36:	83 ec 18             	sub    $0x18,%esp
c0102f39:	83 ec 08             	sub    $0x8,%esp
c0102f3c:	6a 00                	push   $0x0
c0102f3e:	8d 45 f4             	lea    -0xc(%ebp),%eax
c0102f41:	50                   	push   %eax
c0102f42:	e8 a4 fe ff ff       	call   c0102deb <env_alloc>
c0102f47:	83 c4 10             	add    $0x10,%esp
c0102f4a:	8b 45 f4             	mov    -0xc(%ebp),%eax
c0102f4d:	83 ec 0c             	sub    $0xc,%esp
c0102f50:	50                   	push   %eax
c0102f51:	e8 6f ff ff ff       	call   c0102ec5 <load_icode>
c0102f56:	83 c4 10             	add    $0x10,%esp
c0102f59:	8b 45 f4             	mov    -0xc(%ebp),%eax
c0102f5c:	c9                   	leave  
c0102f5d:	c3                   	ret    

c0102f5e <env_run>:
c0102f5e:	55                   	push   %ebp
c0102f5f:	89 e5                	mov    %esp,%ebp
c0102f61:	83 ec 10             	sub    $0x10,%esp
c0102f64:	a1 44 57 11 c0       	mov    0xc0115744,%eax
c0102f69:	85 c0                	test   %eax,%eax
c0102f6b:	74 19                	je     c0102f86 <env_run+0x28>
c0102f6d:	a1 44 57 11 c0       	mov    0xc0115744,%eax
c0102f72:	8b 40 58             	mov    0x58(%eax),%eax
c0102f75:	83 f8 02             	cmp    $0x2,%eax
c0102f78:	75 0c                	jne    c0102f86 <env_run+0x28>
c0102f7a:	a1 44 57 11 c0       	mov    0xc0115744,%eax
c0102f7f:	c7 40 58 01 00 00 00 	movl   $0x1,0x58(%eax)
c0102f86:	a1 44 57 11 c0       	mov    0xc0115744,%eax
c0102f8b:	3b 45 08             	cmp    0x8(%ebp),%eax
c0102f8e:	74 48                	je     c0102fd8 <env_run+0x7a>
c0102f90:	8b 45 08             	mov    0x8(%ebp),%eax
c0102f93:	a3 44 57 11 c0       	mov    %eax,0xc0115744
c0102f98:	8b 45 08             	mov    0x8(%ebp),%eax
c0102f9b:	c7 40 58 02 00 00 00 	movl   $0x2,0x58(%eax)
c0102fa2:	8b 45 08             	mov    0x8(%ebp),%eax
c0102fa5:	8b 40 5c             	mov    0x5c(%eax),%eax
c0102fa8:	8d 50 01             	lea    0x1(%eax),%edx
c0102fab:	8b 45 08             	mov    0x8(%ebp),%eax
c0102fae:	89 50 5c             	mov    %edx,0x5c(%eax)
c0102fb1:	8b 45 08             	mov    0x8(%ebp),%eax
c0102fb4:	8b 80 ec 00 00 00    	mov    0xec(%eax),%eax
c0102fba:	50                   	push   %eax
c0102fbb:	68 eb 00 00 00       	push   $0xeb
c0102fc0:	68 a5 70 10 c0       	push   $0xc01070a5
c0102fc5:	e8 d0 fa ff ff       	call   c0102a9a <_paddr>
c0102fca:	83 c4 0c             	add    $0xc,%esp
c0102fcd:	89 45 fc             	mov    %eax,-0x4(%ebp)
c0102fd0:	8b 45 fc             	mov    -0x4(%ebp),%eax
c0102fd3:	0f 22 d8             	mov    %eax,%cr3
c0102fd6:	eb 14                	jmp    c0102fec <env_run+0x8e>
c0102fd8:	8b 45 08             	mov    0x8(%ebp),%eax
c0102fdb:	a3 44 57 11 c0       	mov    %eax,0xc0115744
c0102fe0:	a1 44 57 11 c0       	mov    0xc0115744,%eax
c0102fe5:	c7 40 58 02 00 00 00 	movl   $0x2,0x58(%eax)
c0102fec:	8b 45 08             	mov    0x8(%ebp),%eax
c0102fef:	50                   	push   %eax
c0102ff0:	e8 bf fe ff ff       	call   c0102eb4 <env_pop_tf>
c0102ff5:	83 c4 04             	add    $0x4,%esp
c0102ff8:	c9                   	leave  
c0102ff9:	c3                   	ret    

c0102ffa <env_run2>:
c0102ffa:	55                   	push   %ebp
c0102ffb:	89 e5                	mov    %esp,%ebp
c0102ffd:	83 ec 18             	sub    $0x18,%esp
c0103000:	a1 44 57 11 c0       	mov    0xc0115744,%eax
c0103005:	85 c0                	test   %eax,%eax
c0103007:	74 19                	je     c0103022 <env_run2+0x28>
c0103009:	a1 44 57 11 c0       	mov    0xc0115744,%eax
c010300e:	8b 40 58             	mov    0x58(%eax),%eax
c0103011:	83 f8 02             	cmp    $0x2,%eax
c0103014:	75 0c                	jne    c0103022 <env_run2+0x28>
c0103016:	a1 44 57 11 c0       	mov    0xc0115744,%eax
c010301b:	c7 40 58 01 00 00 00 	movl   $0x1,0x58(%eax)
c0103022:	a1 44 57 11 c0       	mov    0xc0115744,%eax
c0103027:	3b 45 08             	cmp    0x8(%ebp),%eax
c010302a:	74 48                	je     c0103074 <env_run2+0x7a>
c010302c:	8b 45 08             	mov    0x8(%ebp),%eax
c010302f:	a3 44 57 11 c0       	mov    %eax,0xc0115744
c0103034:	8b 45 08             	mov    0x8(%ebp),%eax
c0103037:	c7 40 58 02 00 00 00 	movl   $0x2,0x58(%eax)
c010303e:	8b 45 08             	mov    0x8(%ebp),%eax
c0103041:	8b 40 5c             	mov    0x5c(%eax),%eax
c0103044:	8d 50 01             	lea    0x1(%eax),%edx
c0103047:	8b 45 08             	mov    0x8(%ebp),%eax
c010304a:	89 50 5c             	mov    %edx,0x5c(%eax)
c010304d:	8b 45 08             	mov    0x8(%ebp),%eax
c0103050:	8b 80 ec 00 00 00    	mov    0xec(%eax),%eax
c0103056:	50                   	push   %eax
c0103057:	68 02 01 00 00       	push   $0x102
c010305c:	68 a5 70 10 c0       	push   $0xc01070a5
c0103061:	e8 34 fa ff ff       	call   c0102a9a <_paddr>
c0103066:	83 c4 0c             	add    $0xc,%esp
c0103069:	89 45 f4             	mov    %eax,-0xc(%ebp)
c010306c:	8b 45 f4             	mov    -0xc(%ebp),%eax
c010306f:	0f 22 d8             	mov    %eax,%cr3
c0103072:	eb 14                	jmp    c0103088 <env_run2+0x8e>
c0103074:	8b 45 08             	mov    0x8(%ebp),%eax
c0103077:	a3 44 57 11 c0       	mov    %eax,0xc0115744
c010307c:	a1 44 57 11 c0       	mov    0xc0115744,%eax
c0103081:	c7 40 58 02 00 00 00 	movl   $0x2,0x58(%eax)
c0103088:	a1 44 57 11 c0       	mov    0xc0115744,%eax
c010308d:	8b 40 30             	mov    0x30(%eax),%eax
c0103090:	ff d0                	call   *%eax
c0103092:	8b 45 08             	mov    0x8(%ebp),%eax
c0103095:	83 ec 0c             	sub    $0xc,%esp
c0103098:	50                   	push   %eax
c0103099:	e8 16 fe ff ff       	call   c0102eb4 <env_pop_tf>
c010309e:	83 c4 10             	add    $0x10,%esp
c01030a1:	c9                   	leave  
c01030a2:	c3                   	ret    

c01030a3 <set_tss>:
c01030a3:	55                   	push   %ebp
c01030a4:	89 e5                	mov    %esp,%ebp
c01030a6:	83 ec 10             	sub    $0x10,%esp
c01030a9:	b8 00 50 11 c0       	mov    $0xc0115000,%eax
c01030ae:	a3 84 57 11 c0       	mov    %eax,0xc0115784
c01030b3:	66 c7 05 88 57 11 c0 	movw   $0x10,0xc0115788
c01030ba:	10 00 
c01030bc:	66 c7 05 e8 96 10 c0 	movw   $0x68,0xc01096e8
c01030c3:	68 00 
c01030c5:	b8 80 57 11 c0       	mov    $0xc0115780,%eax
c01030ca:	66 a3 ea 96 10 c0    	mov    %ax,0xc01096ea
c01030d0:	b8 80 57 11 c0       	mov    $0xc0115780,%eax
c01030d5:	c1 e8 10             	shr    $0x10,%eax
c01030d8:	a2 ec 96 10 c0       	mov    %al,0xc01096ec
c01030dd:	0f b6 05 ed 96 10 c0 	movzbl 0xc01096ed,%eax
c01030e4:	83 e0 f0             	and    $0xfffffff0,%eax
c01030e7:	83 c8 09             	or     $0x9,%eax
c01030ea:	a2 ed 96 10 c0       	mov    %al,0xc01096ed
c01030ef:	0f b6 05 ed 96 10 c0 	movzbl 0xc01096ed,%eax
c01030f6:	83 c8 10             	or     $0x10,%eax
c01030f9:	a2 ed 96 10 c0       	mov    %al,0xc01096ed
c01030fe:	0f b6 05 ed 96 10 c0 	movzbl 0xc01096ed,%eax
c0103105:	83 e0 9f             	and    $0xffffff9f,%eax
c0103108:	a2 ed 96 10 c0       	mov    %al,0xc01096ed
c010310d:	0f b6 05 ed 96 10 c0 	movzbl 0xc01096ed,%eax
c0103114:	83 c8 80             	or     $0xffffff80,%eax
c0103117:	a2 ed 96 10 c0       	mov    %al,0xc01096ed
c010311c:	0f b6 05 ee 96 10 c0 	movzbl 0xc01096ee,%eax
c0103123:	83 e0 f0             	and    $0xfffffff0,%eax
c0103126:	a2 ee 96 10 c0       	mov    %al,0xc01096ee
c010312b:	0f b6 05 ee 96 10 c0 	movzbl 0xc01096ee,%eax
c0103132:	83 e0 ef             	and    $0xffffffef,%eax
c0103135:	a2 ee 96 10 c0       	mov    %al,0xc01096ee
c010313a:	0f b6 05 ee 96 10 c0 	movzbl 0xc01096ee,%eax
c0103141:	83 e0 df             	and    $0xffffffdf,%eax
c0103144:	a2 ee 96 10 c0       	mov    %al,0xc01096ee
c0103149:	0f b6 05 ee 96 10 c0 	movzbl 0xc01096ee,%eax
c0103150:	83 c8 40             	or     $0x40,%eax
c0103153:	a2 ee 96 10 c0       	mov    %al,0xc01096ee
c0103158:	0f b6 05 ee 96 10 c0 	movzbl 0xc01096ee,%eax
c010315f:	83 e0 7f             	and    $0x7f,%eax
c0103162:	a2 ee 96 10 c0       	mov    %al,0xc01096ee
c0103167:	b8 80 57 11 c0       	mov    $0xc0115780,%eax
c010316c:	c1 e8 18             	shr    $0x18,%eax
c010316f:	a2 ef 96 10 c0       	mov    %al,0xc01096ef
c0103174:	0f b6 05 ed 96 10 c0 	movzbl 0xc01096ed,%eax
c010317b:	83 e0 ef             	and    $0xffffffef,%eax
c010317e:	a2 ed 96 10 c0       	mov    %al,0xc01096ed
c0103183:	66 c7 45 fe 28 00    	movw   $0x28,-0x2(%ebp)
c0103189:	0f b7 45 fe          	movzwl -0x2(%ebp),%eax
c010318d:	0f 00 d8             	ltr    %ax
c0103190:	c9                   	leave  
c0103191:	c3                   	ret    

c0103192 <env_free>:
c0103192:	55                   	push   %ebp
c0103193:	89 e5                	mov    %esp,%ebp
c0103195:	83 ec 28             	sub    $0x28,%esp
c0103198:	a1 44 57 11 c0       	mov    0xc0115744,%eax
c010319d:	39 45 08             	cmp    %eax,0x8(%ebp)
c01031a0:	75 21                	jne    c01031c3 <env_free+0x31>
c01031a2:	a1 60 7b 16 c0       	mov    0xc0167b60,%eax
c01031a7:	50                   	push   %eax
c01031a8:	68 24 01 00 00       	push   $0x124
c01031ad:	68 a5 70 10 c0       	push   $0xc01070a5
c01031b2:	e8 e3 f8 ff ff       	call   c0102a9a <_paddr>
c01031b7:	83 c4 0c             	add    $0xc,%esp
c01031ba:	89 45 e4             	mov    %eax,-0x1c(%ebp)
c01031bd:	8b 45 e4             	mov    -0x1c(%ebp),%eax
c01031c0:	0f 22 d8             	mov    %eax,%cr3
c01031c3:	8b 45 08             	mov    0x8(%ebp),%eax
c01031c6:	8b 50 4c             	mov    0x4c(%eax),%edx
c01031c9:	a1 44 57 11 c0       	mov    0xc0115744,%eax
c01031ce:	85 c0                	test   %eax,%eax
c01031d0:	74 0a                	je     c01031dc <env_free+0x4a>
c01031d2:	a1 44 57 11 c0       	mov    0xc0115744,%eax
c01031d7:	8b 40 4c             	mov    0x4c(%eax),%eax
c01031da:	eb 05                	jmp    c01031e1 <env_free+0x4f>
c01031dc:	b8 00 00 00 00       	mov    $0x0,%eax
c01031e1:	83 ec 04             	sub    $0x4,%esp
c01031e4:	52                   	push   %edx
c01031e5:	50                   	push   %eax
c01031e6:	68 be 70 10 c0       	push   $0xc01070be
c01031eb:	e8 97 f7 ff ff       	call   c0102987 <printk>
c01031f0:	83 c4 10             	add    $0x10,%esp
c01031f3:	c7 45 f4 00 00 00 00 	movl   $0x0,-0xc(%ebp)
c01031fa:	e9 f6 00 00 00       	jmp    c01032f5 <env_free+0x163>
c01031ff:	8b 45 08             	mov    0x8(%ebp),%eax
c0103202:	8b 80 ec 00 00 00    	mov    0xec(%eax),%eax
c0103208:	8b 55 f4             	mov    -0xc(%ebp),%edx
c010320b:	c1 e2 02             	shl    $0x2,%edx
c010320e:	01 d0                	add    %edx,%eax
c0103210:	8b 00                	mov    (%eax),%eax
c0103212:	83 e0 01             	and    $0x1,%eax
c0103215:	85 c0                	test   %eax,%eax
c0103217:	74 16                	je     c010322f <env_free+0x9d>
c0103219:	a1 60 7b 16 c0       	mov    0xc0167b60,%eax
c010321e:	8b 55 f4             	mov    -0xc(%ebp),%edx
c0103221:	c1 e2 02             	shl    $0x2,%edx
c0103224:	01 d0                	add    %edx,%eax
c0103226:	8b 00                	mov    (%eax),%eax
c0103228:	83 e0 01             	and    $0x1,%eax
c010322b:	85 c0                	test   %eax,%eax
c010322d:	74 05                	je     c0103234 <env_free+0xa2>
c010322f:	e9 bd 00 00 00       	jmp    c01032f1 <env_free+0x15f>
c0103234:	8b 45 08             	mov    0x8(%ebp),%eax
c0103237:	8b 80 ec 00 00 00    	mov    0xec(%eax),%eax
c010323d:	8b 55 f4             	mov    -0xc(%ebp),%edx
c0103240:	c1 e2 02             	shl    $0x2,%edx
c0103243:	01 d0                	add    %edx,%eax
c0103245:	8b 00                	mov    (%eax),%eax
c0103247:	25 00 f0 ff ff       	and    $0xfffff000,%eax
c010324c:	89 45 ec             	mov    %eax,-0x14(%ebp)
c010324f:	83 ec 04             	sub    $0x4,%esp
c0103252:	ff 75 ec             	pushl  -0x14(%ebp)
c0103255:	68 34 01 00 00       	push   $0x134
c010325a:	68 a5 70 10 c0       	push   $0xc01070a5
c010325f:	e8 43 f8 ff ff       	call   c0102aa7 <_kaddr>
c0103264:	83 c4 10             	add    $0x10,%esp
c0103267:	89 45 e8             	mov    %eax,-0x18(%ebp)
c010326a:	c7 45 f0 00 00 00 00 	movl   $0x0,-0x10(%ebp)
c0103271:	eb 44                	jmp    c01032b7 <env_free+0x125>
c0103273:	8b 45 f0             	mov    -0x10(%ebp),%eax
c0103276:	8d 14 85 00 00 00 00 	lea    0x0(,%eax,4),%edx
c010327d:	8b 45 e8             	mov    -0x18(%ebp),%eax
c0103280:	01 d0                	add    %edx,%eax
c0103282:	8b 00                	mov    (%eax),%eax
c0103284:	83 e0 01             	and    $0x1,%eax
c0103287:	85 c0                	test   %eax,%eax
c0103289:	74 28                	je     c01032b3 <env_free+0x121>
c010328b:	8b 45 f4             	mov    -0xc(%ebp),%eax
c010328e:	c1 e0 16             	shl    $0x16,%eax
c0103291:	89 c2                	mov    %eax,%edx
c0103293:	8b 45 f0             	mov    -0x10(%ebp),%eax
c0103296:	c1 e0 0c             	shl    $0xc,%eax
c0103299:	09 d0                	or     %edx,%eax
c010329b:	89 c2                	mov    %eax,%edx
c010329d:	8b 45 08             	mov    0x8(%ebp),%eax
c01032a0:	8b 80 ec 00 00 00    	mov    0xec(%eax),%eax
c01032a6:	83 ec 08             	sub    $0x8,%esp
c01032a9:	52                   	push   %edx
c01032aa:	50                   	push   %eax
c01032ab:	e8 7c 17 00 00       	call   c0104a2c <page_remove>
c01032b0:	83 c4 10             	add    $0x10,%esp
c01032b3:	83 45 f0 01          	addl   $0x1,-0x10(%ebp)
c01032b7:	81 7d f0 ff 03 00 00 	cmpl   $0x3ff,-0x10(%ebp)
c01032be:	76 b3                	jbe    c0103273 <env_free+0xe1>
c01032c0:	8b 45 08             	mov    0x8(%ebp),%eax
c01032c3:	8b 80 ec 00 00 00    	mov    0xec(%eax),%eax
c01032c9:	8b 55 f4             	mov    -0xc(%ebp),%edx
c01032cc:	c1 e2 02             	shl    $0x2,%edx
c01032cf:	01 d0                	add    %edx,%eax
c01032d1:	c7 00 00 00 00 00    	movl   $0x0,(%eax)
c01032d7:	83 ec 0c             	sub    $0xc,%esp
c01032da:	ff 75 ec             	pushl  -0x14(%ebp)
c01032dd:	e8 e8 f7 ff ff       	call   c0102aca <pa2page>
c01032e2:	83 c4 10             	add    $0x10,%esp
c01032e5:	83 ec 0c             	sub    $0xc,%esp
c01032e8:	50                   	push   %eax
c01032e9:	e8 b0 14 00 00       	call   c010479e <page_decref>
c01032ee:	83 c4 10             	add    $0x10,%esp
c01032f1:	83 45 f4 01          	addl   $0x1,-0xc(%ebp)
c01032f5:	81 7d f4 fa 02 00 00 	cmpl   $0x2fa,-0xc(%ebp)
c01032fc:	0f 86 fd fe ff ff    	jbe    c01031ff <env_free+0x6d>
c0103302:	8b 45 08             	mov    0x8(%ebp),%eax
c0103305:	8b 80 ec 00 00 00    	mov    0xec(%eax),%eax
c010330b:	83 ec 04             	sub    $0x4,%esp
c010330e:	50                   	push   %eax
c010330f:	68 42 01 00 00       	push   $0x142
c0103314:	68 a5 70 10 c0       	push   $0xc01070a5
c0103319:	e8 7c f7 ff ff       	call   c0102a9a <_paddr>
c010331e:	83 c4 10             	add    $0x10,%esp
c0103321:	89 45 ec             	mov    %eax,-0x14(%ebp)
c0103324:	8b 45 08             	mov    0x8(%ebp),%eax
c0103327:	c7 80 ec 00 00 00 00 	movl   $0x0,0xec(%eax)
c010332e:	00 00 00 
c0103331:	83 ec 0c             	sub    $0xc,%esp
c0103334:	ff 75 ec             	pushl  -0x14(%ebp)
c0103337:	e8 8e f7 ff ff       	call   c0102aca <pa2page>
c010333c:	83 c4 10             	add    $0x10,%esp
c010333f:	83 ec 0c             	sub    $0xc,%esp
c0103342:	50                   	push   %eax
c0103343:	e8 56 14 00 00       	call   c010479e <page_decref>
c0103348:	83 c4 10             	add    $0x10,%esp
c010334b:	8b 45 08             	mov    0x8(%ebp),%eax
c010334e:	c7 40 58 00 00 00 00 	movl   $0x0,0x58(%eax)
c0103355:	8b 15 4c 57 11 c0    	mov    0xc011574c,%edx
c010335b:	8b 45 08             	mov    0x8(%ebp),%eax
c010335e:	89 50 48             	mov    %edx,0x48(%eax)
c0103361:	8b 45 08             	mov    0x8(%ebp),%eax
c0103364:	a3 4c 57 11 c0       	mov    %eax,0xc011574c
c0103369:	c9                   	leave  
c010336a:	c3                   	ret    

c010336b <fork>:
c010336b:	55                   	push   %ebp
c010336c:	89 e5                	mov    %esp,%ebp
c010336e:	57                   	push   %edi
c010336f:	56                   	push   %esi
c0103370:	53                   	push   %ebx
c0103371:	83 ec 2c             	sub    $0x2c,%esp
c0103374:	83 ec 0c             	sub    $0xc,%esp
c0103377:	68 d4 70 10 c0       	push   $0xc01070d4
c010337c:	e8 06 f6 ff ff       	call   c0102987 <printk>
c0103381:	83 c4 10             	add    $0x10,%esp
c0103384:	a1 44 57 11 c0       	mov    0xc0115744,%eax
c0103389:	8b 40 4c             	mov    0x4c(%eax),%eax
c010338c:	89 45 dc             	mov    %eax,-0x24(%ebp)
c010338f:	c7 45 cc 00 00 00 00 	movl   $0x0,-0x34(%ebp)
c0103396:	83 ec 08             	sub    $0x8,%esp
c0103399:	ff 75 dc             	pushl  -0x24(%ebp)
c010339c:	8d 45 cc             	lea    -0x34(%ebp),%eax
c010339f:	50                   	push   %eax
c01033a0:	e8 46 fa ff ff       	call   c0102deb <env_alloc>
c01033a5:	83 c4 10             	add    $0x10,%esp
c01033a8:	89 45 d8             	mov    %eax,-0x28(%ebp)
c01033ab:	83 7d d8 00          	cmpl   $0x0,-0x28(%ebp)
c01033af:	74 12                	je     c01033c3 <fork+0x58>
c01033b1:	83 ec 0c             	sub    $0xc,%esp
c01033b4:	68 e0 70 10 c0       	push   $0xc01070e0
c01033b9:	e8 c9 f5 ff ff       	call   c0102987 <printk>
c01033be:	83 c4 10             	add    $0x10,%esp
c01033c1:	eb fe                	jmp    c01033c1 <fork+0x56>
c01033c3:	c7 45 e4 00 00 00 00 	movl   $0x0,-0x1c(%ebp)
c01033ca:	e9 2d 01 00 00       	jmp    c01034fc <fork+0x191>
c01033cf:	8b 45 cc             	mov    -0x34(%ebp),%eax
c01033d2:	8b 80 ec 00 00 00    	mov    0xec(%eax),%eax
c01033d8:	8b 55 e4             	mov    -0x1c(%ebp),%edx
c01033db:	c1 e2 02             	shl    $0x2,%edx
c01033de:	01 d0                	add    %edx,%eax
c01033e0:	8b 00                	mov    (%eax),%eax
c01033e2:	83 e0 01             	and    $0x1,%eax
c01033e5:	85 c0                	test   %eax,%eax
c01033e7:	0f 85 0b 01 00 00    	jne    c01034f8 <fork+0x18d>
c01033ed:	a1 44 57 11 c0       	mov    0xc0115744,%eax
c01033f2:	8b 80 ec 00 00 00    	mov    0xec(%eax),%eax
c01033f8:	8b 55 e4             	mov    -0x1c(%ebp),%edx
c01033fb:	c1 e2 02             	shl    $0x2,%edx
c01033fe:	01 d0                	add    %edx,%eax
c0103400:	8b 00                	mov    (%eax),%eax
c0103402:	83 e0 01             	and    $0x1,%eax
c0103405:	85 c0                	test   %eax,%eax
c0103407:	0f 84 eb 00 00 00    	je     c01034f8 <fork+0x18d>
c010340d:	a1 44 57 11 c0       	mov    0xc0115744,%eax
c0103412:	8b 80 ec 00 00 00    	mov    0xec(%eax),%eax
c0103418:	8b 55 e4             	mov    -0x1c(%ebp),%edx
c010341b:	c1 e2 02             	shl    $0x2,%edx
c010341e:	01 d0                	add    %edx,%eax
c0103420:	8b 00                	mov    (%eax),%eax
c0103422:	83 ec 0c             	sub    $0xc,%esp
c0103425:	50                   	push   %eax
c0103426:	e8 9f f6 ff ff       	call   c0102aca <pa2page>
c010342b:	83 c4 10             	add    $0x10,%esp
c010342e:	83 ec 0c             	sub    $0xc,%esp
c0103431:	50                   	push   %eax
c0103432:	e8 a8 f6 ff ff       	call   c0102adf <page2kva>
c0103437:	83 c4 10             	add    $0x10,%esp
c010343a:	89 45 d4             	mov    %eax,-0x2c(%ebp)
c010343d:	c7 45 e0 00 00 00 00 	movl   $0x0,-0x20(%ebp)
c0103444:	e9 a2 00 00 00       	jmp    c01034eb <fork+0x180>
c0103449:	8b 45 e0             	mov    -0x20(%ebp),%eax
c010344c:	8d 14 85 00 00 00 00 	lea    0x0(,%eax,4),%edx
c0103453:	8b 45 d4             	mov    -0x2c(%ebp),%eax
c0103456:	01 d0                	add    %edx,%eax
c0103458:	8b 00                	mov    (%eax),%eax
c010345a:	85 c0                	test   %eax,%eax
c010345c:	0f 84 85 00 00 00    	je     c01034e7 <fork+0x17c>
c0103462:	83 ec 0c             	sub    $0xc,%esp
c0103465:	6a 01                	push   $0x1
c0103467:	e8 c0 12 00 00       	call   c010472c <page_alloc>
c010346c:	83 c4 10             	add    $0x10,%esp
c010346f:	89 45 d0             	mov    %eax,-0x30(%ebp)
c0103472:	8b 45 e4             	mov    -0x1c(%ebp),%eax
c0103475:	c1 e0 16             	shl    $0x16,%eax
c0103478:	89 c2                	mov    %eax,%edx
c010347a:	8b 45 e0             	mov    -0x20(%ebp),%eax
c010347d:	c1 e0 0c             	shl    $0xc,%eax
c0103480:	09 d0                	or     %edx,%eax
c0103482:	89 c2                	mov    %eax,%edx
c0103484:	8b 45 cc             	mov    -0x34(%ebp),%eax
c0103487:	8b 80 ec 00 00 00    	mov    0xec(%eax),%eax
c010348d:	6a 06                	push   $0x6
c010348f:	52                   	push   %edx
c0103490:	ff 75 d0             	pushl  -0x30(%ebp)
c0103493:	50                   	push   %eax
c0103494:	e8 96 14 00 00       	call   c010492f <page_insert>
c0103499:	83 c4 10             	add    $0x10,%esp
c010349c:	8b 45 e0             	mov    -0x20(%ebp),%eax
c010349f:	8d 14 85 00 00 00 00 	lea    0x0(,%eax,4),%edx
c01034a6:	8b 45 d4             	mov    -0x2c(%ebp),%eax
c01034a9:	01 d0                	add    %edx,%eax
c01034ab:	8b 00                	mov    (%eax),%eax
c01034ad:	83 ec 0c             	sub    $0xc,%esp
c01034b0:	50                   	push   %eax
c01034b1:	e8 14 f6 ff ff       	call   c0102aca <pa2page>
c01034b6:	83 c4 10             	add    $0x10,%esp
c01034b9:	83 ec 0c             	sub    $0xc,%esp
c01034bc:	50                   	push   %eax
c01034bd:	e8 1d f6 ff ff       	call   c0102adf <page2kva>
c01034c2:	83 c4 10             	add    $0x10,%esp
c01034c5:	89 c3                	mov    %eax,%ebx
c01034c7:	83 ec 0c             	sub    $0xc,%esp
c01034ca:	ff 75 d0             	pushl  -0x30(%ebp)
c01034cd:	e8 0d f6 ff ff       	call   c0102adf <page2kva>
c01034d2:	83 c4 10             	add    $0x10,%esp
c01034d5:	83 ec 04             	sub    $0x4,%esp
c01034d8:	68 00 10 00 00       	push   $0x1000
c01034dd:	53                   	push   %ebx
c01034de:	50                   	push   %eax
c01034df:	e8 1b f0 ff ff       	call   c01024ff <memcpy>
c01034e4:	83 c4 10             	add    $0x10,%esp
c01034e7:	83 45 e0 01          	addl   $0x1,-0x20(%ebp)
c01034eb:	81 7d e0 ff 03 00 00 	cmpl   $0x3ff,-0x20(%ebp)
c01034f2:	0f 8e 51 ff ff ff    	jle    c0103449 <fork+0xde>
c01034f8:	83 45 e4 01          	addl   $0x1,-0x1c(%ebp)
c01034fc:	81 7d e4 ff 03 00 00 	cmpl   $0x3ff,-0x1c(%ebp)
c0103503:	0f 8e c6 fe ff ff    	jle    c01033cf <fork+0x64>
c0103509:	8b 55 cc             	mov    -0x34(%ebp),%edx
c010350c:	a1 44 57 11 c0       	mov    0xc0115744,%eax
c0103511:	89 c3                	mov    %eax,%ebx
c0103513:	b8 12 00 00 00       	mov    $0x12,%eax
c0103518:	89 d7                	mov    %edx,%edi
c010351a:	89 de                	mov    %ebx,%esi
c010351c:	89 c1                	mov    %eax,%ecx
c010351e:	f3 a5                	rep movsl %ds:(%esi),%es:(%edi)
c0103520:	a1 44 57 11 c0       	mov    0xc0115744,%eax
c0103525:	8b 40 30             	mov    0x30(%eax),%eax
c0103528:	83 ec 08             	sub    $0x8,%esp
c010352b:	50                   	push   %eax
c010352c:	68 e8 70 10 c0       	push   $0xc01070e8
c0103531:	e8 51 f4 ff ff       	call   c0102987 <printk>
c0103536:	83 c4 10             	add    $0x10,%esp
c0103539:	8b 45 cc             	mov    -0x34(%ebp),%eax
c010353c:	c7 40 1c 00 00 00 00 	movl   $0x0,0x1c(%eax)
c0103543:	83 ec 0c             	sub    $0xc,%esp
c0103546:	68 ec 70 10 c0       	push   $0xc01070ec
c010354b:	e8 37 f4 ff ff       	call   c0102987 <printk>
c0103550:	83 c4 10             	add    $0x10,%esp
c0103553:	8b 45 cc             	mov    -0x34(%ebp),%eax
c0103556:	8b 40 4c             	mov    0x4c(%eax),%eax
c0103559:	8d 65 f4             	lea    -0xc(%ebp),%esp
c010355c:	5b                   	pop    %ebx
c010355d:	5e                   	pop    %esi
c010355e:	5f                   	pop    %edi
c010355f:	5d                   	pop    %ebp
c0103560:	c3                   	ret    

c0103561 <seek_next>:
c0103561:	55                   	push   %ebp
c0103562:	89 e5                	mov    %esp,%ebp
c0103564:	83 ec 10             	sub    $0x10,%esp
c0103567:	a1 44 57 11 c0       	mov    0xc0115744,%eax
c010356c:	89 45 fc             	mov    %eax,-0x4(%ebp)
c010356f:	c7 45 f8 00 00 00 00 	movl   $0x0,-0x8(%ebp)
c0103576:	eb 40                	jmp    c01035b8 <seek_next+0x57>
c0103578:	a1 40 57 11 c0       	mov    0xc0115740,%eax
c010357d:	05 10 1d 00 00       	add    $0x1d10,%eax
c0103582:	3b 45 fc             	cmp    -0x4(%ebp),%eax
c0103585:	75 0a                	jne    c0103591 <seek_next+0x30>
c0103587:	a1 40 57 11 c0       	mov    0xc0115740,%eax
c010358c:	89 45 fc             	mov    %eax,-0x4(%ebp)
c010358f:	eb 07                	jmp    c0103598 <seek_next+0x37>
c0103591:	81 45 fc f0 00 00 00 	addl   $0xf0,-0x4(%ebp)
c0103598:	a1 44 57 11 c0       	mov    0xc0115744,%eax
c010359d:	39 45 fc             	cmp    %eax,-0x4(%ebp)
c01035a0:	75 02                	jne    c01035a4 <seek_next+0x43>
c01035a2:	eb 10                	jmp    c01035b4 <seek_next+0x53>
c01035a4:	8b 45 fc             	mov    -0x4(%ebp),%eax
c01035a7:	8b 40 58             	mov    0x58(%eax),%eax
c01035aa:	83 f8 01             	cmp    $0x1,%eax
c01035ad:	75 05                	jne    c01035b4 <seek_next+0x53>
c01035af:	8b 45 fc             	mov    -0x4(%ebp),%eax
c01035b2:	eb 0f                	jmp    c01035c3 <seek_next+0x62>
c01035b4:	83 45 f8 01          	addl   $0x1,-0x8(%ebp)
c01035b8:	83 7d f8 21          	cmpl   $0x21,-0x8(%ebp)
c01035bc:	7e ba                	jle    c0103578 <seek_next+0x17>
c01035be:	b8 00 00 00 00       	mov    $0x0,%eax
c01035c3:	c9                   	leave  
c01035c4:	c3                   	ret    

c01035c5 <env_sleep>:
c01035c5:	55                   	push   %ebp
c01035c6:	89 e5                	mov    %esp,%ebp
c01035c8:	83 ec 18             	sub    $0x18,%esp
c01035cb:	8b 45 08             	mov    0x8(%ebp),%eax
c01035ce:	c7 40 58 03 00 00 00 	movl   $0x3,0x58(%eax)
c01035d5:	8b 45 08             	mov    0x8(%ebp),%eax
c01035d8:	8b 55 0c             	mov    0xc(%ebp),%edx
c01035db:	89 50 60             	mov    %edx,0x60(%eax)
c01035de:	e8 7e ff ff ff       	call   c0103561 <seek_next>
c01035e3:	89 45 f4             	mov    %eax,-0xc(%ebp)
c01035e6:	83 7d f4 00          	cmpl   $0x0,-0xc(%ebp)
c01035ea:	74 0d                	je     c01035f9 <env_sleep+0x34>
c01035ec:	ff 75 f4             	pushl  -0xc(%ebp)
c01035ef:	e8 6a f9 ff ff       	call   c0102f5e <env_run>
c01035f4:	83 c4 04             	add    $0x4,%esp
c01035f7:	eb 12                	jmp    c010360b <env_sleep+0x46>
c01035f9:	83 ec 0c             	sub    $0xc,%esp
c01035fc:	68 f6 70 10 c0       	push   $0xc01070f6
c0103601:	e8 81 f3 ff ff       	call   c0102987 <printk>
c0103606:	83 c4 10             	add    $0x10,%esp
c0103609:	eb fe                	jmp    c0103609 <env_sleep+0x44>
c010360b:	c9                   	leave  
c010360c:	c3                   	ret    

c010360d <env_exit>:
c010360d:	55                   	push   %ebp
c010360e:	89 e5                	mov    %esp,%ebp
c0103610:	83 ec 18             	sub    $0x18,%esp
c0103613:	83 ec 0c             	sub    $0xc,%esp
c0103616:	ff 75 08             	pushl  0x8(%ebp)
c0103619:	e8 74 fb ff ff       	call   c0103192 <env_free>
c010361e:	83 c4 10             	add    $0x10,%esp
c0103621:	e8 3b ff ff ff       	call   c0103561 <seek_next>
c0103626:	89 45 f4             	mov    %eax,-0xc(%ebp)
c0103629:	83 7d f4 00          	cmpl   $0x0,-0xc(%ebp)
c010362d:	75 12                	jne    c0103641 <env_exit+0x34>
c010362f:	83 ec 0c             	sub    $0xc,%esp
c0103632:	68 f6 70 10 c0       	push   $0xc01070f6
c0103637:	e8 4b f3 ff ff       	call   c0102987 <printk>
c010363c:	83 c4 10             	add    $0x10,%esp
c010363f:	eb fe                	jmp    c010363f <env_exit+0x32>
c0103641:	83 ec 0c             	sub    $0xc,%esp
c0103644:	68 0a 71 10 c0       	push   $0xc010710a
c0103649:	e8 39 f3 ff ff       	call   c0102987 <printk>
c010364e:	83 c4 10             	add    $0x10,%esp
c0103651:	8b 45 08             	mov    0x8(%ebp),%eax
c0103654:	8b 40 4c             	mov    0x4c(%eax),%eax
c0103657:	83 ec 08             	sub    $0x8,%esp
c010365a:	50                   	push   %eax
c010365b:	68 a1 70 10 c0       	push   $0xc01070a1
c0103660:	e8 22 f3 ff ff       	call   c0102987 <printk>
c0103665:	83 c4 10             	add    $0x10,%esp
c0103668:	8b 45 f4             	mov    -0xc(%ebp),%eax
c010366b:	8b 40 4c             	mov    0x4c(%eax),%eax
c010366e:	83 ec 08             	sub    $0x8,%esp
c0103671:	50                   	push   %eax
c0103672:	68 a1 70 10 c0       	push   $0xc01070a1
c0103677:	e8 0b f3 ff ff       	call   c0102987 <printk>
c010367c:	83 c4 10             	add    $0x10,%esp
c010367f:	83 7d f4 00          	cmpl   $0x0,-0xc(%ebp)
c0103683:	74 0e                	je     c0103693 <env_exit+0x86>
c0103685:	83 ec 0c             	sub    $0xc,%esp
c0103688:	ff 75 f4             	pushl  -0xc(%ebp)
c010368b:	e8 ce f8 ff ff       	call   c0102f5e <env_run>
c0103690:	83 c4 10             	add    $0x10,%esp
c0103693:	c9                   	leave  
c0103694:	c3                   	ret    

c0103695 <timer_event>:
c0103695:	55                   	push   %ebp
c0103696:	89 e5                	mov    %esp,%ebp
c0103698:	83 ec 18             	sub    $0x18,%esp
c010369b:	a1 48 57 11 c0       	mov    0xc0115748,%eax
c01036a0:	83 c0 01             	add    $0x1,%eax
c01036a3:	a3 48 57 11 c0       	mov    %eax,0xc0115748
c01036a8:	c7 45 f0 00 00 00 00 	movl   $0x0,-0x10(%ebp)
c01036af:	e8 52 e5 ff ff       	call   c0101c06 <kbd_proc_data>
c01036b4:	c7 45 f4 00 00 00 00 	movl   $0x0,-0xc(%ebp)
c01036bb:	eb 70                	jmp    c010372d <timer_event+0x98>
c01036bd:	8b 15 40 57 11 c0    	mov    0xc0115740,%edx
c01036c3:	8b 45 f4             	mov    -0xc(%ebp),%eax
c01036c6:	c1 e0 04             	shl    $0x4,%eax
c01036c9:	89 c1                	mov    %eax,%ecx
c01036cb:	c1 e1 04             	shl    $0x4,%ecx
c01036ce:	29 c1                	sub    %eax,%ecx
c01036d0:	89 c8                	mov    %ecx,%eax
c01036d2:	01 d0                	add    %edx,%eax
c01036d4:	89 45 ec             	mov    %eax,-0x14(%ebp)
c01036d7:	8b 45 ec             	mov    -0x14(%ebp),%eax
c01036da:	8b 40 58             	mov    0x58(%eax),%eax
c01036dd:	83 f8 02             	cmp    $0x2,%eax
c01036e0:	74 0b                	je     c01036ed <timer_event+0x58>
c01036e2:	8b 45 ec             	mov    -0x14(%ebp),%eax
c01036e5:	8b 40 58             	mov    0x58(%eax),%eax
c01036e8:	83 f8 01             	cmp    $0x1,%eax
c01036eb:	75 07                	jne    c01036f4 <timer_event+0x5f>
c01036ed:	c7 45 f0 01 00 00 00 	movl   $0x1,-0x10(%ebp)
c01036f4:	8b 45 ec             	mov    -0x14(%ebp),%eax
c01036f7:	8b 40 58             	mov    0x58(%eax),%eax
c01036fa:	83 f8 03             	cmp    $0x3,%eax
c01036fd:	75 2a                	jne    c0103729 <timer_event+0x94>
c01036ff:	c7 45 f0 01 00 00 00 	movl   $0x1,-0x10(%ebp)
c0103706:	8b 45 ec             	mov    -0x14(%ebp),%eax
c0103709:	8b 40 60             	mov    0x60(%eax),%eax
c010370c:	8d 50 ff             	lea    -0x1(%eax),%edx
c010370f:	8b 45 ec             	mov    -0x14(%ebp),%eax
c0103712:	89 50 60             	mov    %edx,0x60(%eax)
c0103715:	8b 45 ec             	mov    -0x14(%ebp),%eax
c0103718:	8b 40 60             	mov    0x60(%eax),%eax
c010371b:	85 c0                	test   %eax,%eax
c010371d:	75 0a                	jne    c0103729 <timer_event+0x94>
c010371f:	8b 45 ec             	mov    -0x14(%ebp),%eax
c0103722:	c7 40 58 01 00 00 00 	movl   $0x1,0x58(%eax)
c0103729:	83 45 f4 01          	addl   $0x1,-0xc(%ebp)
c010372d:	83 7d f4 1e          	cmpl   $0x1e,-0xc(%ebp)
c0103731:	7e 8a                	jle    c01036bd <timer_event+0x28>
c0103733:	8b 0d 48 57 11 c0    	mov    0xc0115748,%ecx
c0103739:	ba 67 66 66 66       	mov    $0x66666667,%edx
c010373e:	89 c8                	mov    %ecx,%eax
c0103740:	f7 ea                	imul   %edx
c0103742:	c1 fa 02             	sar    $0x2,%edx
c0103745:	89 c8                	mov    %ecx,%eax
c0103747:	c1 f8 1f             	sar    $0x1f,%eax
c010374a:	29 c2                	sub    %eax,%edx
c010374c:	89 d0                	mov    %edx,%eax
c010374e:	c1 e0 02             	shl    $0x2,%eax
c0103751:	01 d0                	add    %edx,%eax
c0103753:	01 c0                	add    %eax,%eax
c0103755:	29 c1                	sub    %eax,%ecx
c0103757:	89 ca                	mov    %ecx,%edx
c0103759:	85 d2                	test   %edx,%edx
c010375b:	74 59                	je     c01037b6 <timer_event+0x121>
c010375d:	e8 ff fd ff ff       	call   c0103561 <seek_next>
c0103762:	89 45 e8             	mov    %eax,-0x18(%ebp)
c0103765:	83 7d f0 00          	cmpl   $0x0,-0x10(%ebp)
c0103769:	75 1e                	jne    c0103789 <timer_event+0xf4>
c010376b:	a1 40 57 11 c0       	mov    0xc0115740,%eax
c0103770:	05 10 1d 00 00       	add    $0x1d10,%eax
c0103775:	a3 44 57 11 c0       	mov    %eax,0xc0115744
c010377a:	83 ec 0c             	sub    $0xc,%esp
c010377d:	6a 00                	push   $0x0
c010377f:	e8 77 d8 ff ff       	call   c0100ffb <monitor>
c0103784:	83 c4 10             	add    $0x10,%esp
c0103787:	eb 2d                	jmp    c01037b6 <timer_event+0x121>
c0103789:	83 7d e8 00          	cmpl   $0x0,-0x18(%ebp)
c010378d:	74 27                	je     c01037b6 <timer_event+0x121>
c010378f:	a1 44 57 11 c0       	mov    0xc0115744,%eax
c0103794:	39 45 e8             	cmp    %eax,-0x18(%ebp)
c0103797:	74 1d                	je     c01037b6 <timer_event+0x121>
c0103799:	a1 40 57 11 c0       	mov    0xc0115740,%eax
c010379e:	05 10 1d 00 00       	add    $0x1d10,%eax
c01037a3:	3b 45 e8             	cmp    -0x18(%ebp),%eax
c01037a6:	74 0e                	je     c01037b6 <timer_event+0x121>
c01037a8:	83 ec 0c             	sub    $0xc,%esp
c01037ab:	ff 75 e8             	pushl  -0x18(%ebp)
c01037ae:	e8 ab f7 ff ff       	call   c0102f5e <env_run>
c01037b3:	83 c4 10             	add    $0x10,%esp
c01037b6:	83 7d f0 00          	cmpl   $0x0,-0x10(%ebp)
c01037ba:	75 12                	jne    c01037ce <timer_event+0x139>
c01037bc:	83 ec 0c             	sub    $0xc,%esp
c01037bf:	68 f6 70 10 c0       	push   $0xc01070f6
c01037c4:	e8 be f1 ff ff       	call   c0102987 <printk>
c01037c9:	83 c4 10             	add    $0x10,%esp
c01037cc:	eb fe                	jmp    c01037cc <timer_event+0x137>
c01037ce:	c9                   	leave  
c01037cf:	c3                   	ret    

c01037d0 <envid2index>:
c01037d0:	55                   	push   %ebp
c01037d1:	89 e5                	mov    %esp,%ebp
c01037d3:	83 ec 10             	sub    $0x10,%esp
c01037d6:	c7 45 fc 00 00 00 00 	movl   $0x0,-0x4(%ebp)
c01037dd:	c7 45 fc 00 00 00 00 	movl   $0x0,-0x4(%ebp)
c01037e4:	eb 28                	jmp    c010380e <envid2index+0x3e>
c01037e6:	8b 15 40 57 11 c0    	mov    0xc0115740,%edx
c01037ec:	8b 45 fc             	mov    -0x4(%ebp),%eax
c01037ef:	c1 e0 04             	shl    $0x4,%eax
c01037f2:	89 c1                	mov    %eax,%ecx
c01037f4:	c1 e1 04             	shl    $0x4,%ecx
c01037f7:	29 c1                	sub    %eax,%ecx
c01037f9:	89 c8                	mov    %ecx,%eax
c01037fb:	01 d0                	add    %edx,%eax
c01037fd:	8b 40 4c             	mov    0x4c(%eax),%eax
c0103800:	3b 45 08             	cmp    0x8(%ebp),%eax
c0103803:	75 05                	jne    c010380a <envid2index+0x3a>
c0103805:	8b 45 fc             	mov    -0x4(%ebp),%eax
c0103808:	eb 0f                	jmp    c0103819 <envid2index+0x49>
c010380a:	83 45 fc 01          	addl   $0x1,-0x4(%ebp)
c010380e:	83 7d fc 1f          	cmpl   $0x1f,-0x4(%ebp)
c0103812:	7e d2                	jle    c01037e6 <envid2index+0x16>
c0103814:	b8 ff ff ff ff       	mov    $0xffffffff,%eax
c0103819:	c9                   	leave  
c010381a:	c3                   	ret    

c010381b <fork2>:
c010381b:	55                   	push   %ebp
c010381c:	89 e5                	mov    %esp,%ebp
c010381e:	56                   	push   %esi
c010381f:	53                   	push   %ebx
c0103820:	83 ec 20             	sub    $0x20,%esp
c0103823:	a1 44 57 11 c0       	mov    0xc0115744,%eax
c0103828:	8b 40 4c             	mov    0x4c(%eax),%eax
c010382b:	89 45 f0             	mov    %eax,-0x10(%ebp)
c010382e:	c7 45 e4 00 00 00 00 	movl   $0x0,-0x1c(%ebp)
c0103835:	83 ec 08             	sub    $0x8,%esp
c0103838:	ff 75 f0             	pushl  -0x10(%ebp)
c010383b:	8d 45 e4             	lea    -0x1c(%ebp),%eax
c010383e:	50                   	push   %eax
c010383f:	e8 a7 f5 ff ff       	call   c0102deb <env_alloc>
c0103844:	83 c4 10             	add    $0x10,%esp
c0103847:	89 45 ec             	mov    %eax,-0x14(%ebp)
c010384a:	83 7d ec 00          	cmpl   $0x0,-0x14(%ebp)
c010384e:	74 12                	je     c0103862 <fork2+0x47>
c0103850:	83 ec 0c             	sub    $0xc,%esp
c0103853:	68 e0 70 10 c0       	push   $0xc01070e0
c0103858:	e8 2a f1 ff ff       	call   c0102987 <printk>
c010385d:	83 c4 10             	add    $0x10,%esp
c0103860:	eb fe                	jmp    c0103860 <fork2+0x45>
c0103862:	c7 45 f4 00 00 00 00 	movl   $0x0,-0xc(%ebp)
c0103869:	eb 2c                	jmp    c0103897 <fork2+0x7c>
c010386b:	8b 45 e4             	mov    -0x1c(%ebp),%eax
c010386e:	8b 80 ec 00 00 00    	mov    0xec(%eax),%eax
c0103874:	8b 55 f4             	mov    -0xc(%ebp),%edx
c0103877:	c1 e2 02             	shl    $0x2,%edx
c010387a:	01 c2                	add    %eax,%edx
c010387c:	a1 44 57 11 c0       	mov    0xc0115744,%eax
c0103881:	8b 80 ec 00 00 00    	mov    0xec(%eax),%eax
c0103887:	8b 4d f4             	mov    -0xc(%ebp),%ecx
c010388a:	c1 e1 02             	shl    $0x2,%ecx
c010388d:	01 c8                	add    %ecx,%eax
c010388f:	8b 00                	mov    (%eax),%eax
c0103891:	89 02                	mov    %eax,(%edx)
c0103893:	83 45 f4 01          	addl   $0x1,-0xc(%ebp)
c0103897:	81 7d f4 ff 03 00 00 	cmpl   $0x3ff,-0xc(%ebp)
c010389e:	7e cb                	jle    c010386b <fork2+0x50>
c01038a0:	83 ec 0c             	sub    $0xc,%esp
c01038a3:	ff 75 f0             	pushl  -0x10(%ebp)
c01038a6:	e8 25 ff ff ff       	call   c01037d0 <envid2index>
c01038ab:	83 c4 10             	add    $0x10,%esp
c01038ae:	89 45 e8             	mov    %eax,-0x18(%ebp)
c01038b1:	8b 45 e4             	mov    -0x1c(%ebp),%eax
c01038b4:	c7 40 54 01 00 00 00 	movl   $0x1,0x54(%eax)
c01038bb:	8b 55 e4             	mov    -0x1c(%ebp),%edx
c01038be:	8b 0d 40 57 11 c0    	mov    0xc0115740,%ecx
c01038c4:	8b 45 e8             	mov    -0x18(%ebp),%eax
c01038c7:	c1 e0 04             	shl    $0x4,%eax
c01038ca:	89 c3                	mov    %eax,%ebx
c01038cc:	c1 e3 04             	shl    $0x4,%ebx
c01038cf:	29 c3                	sub    %eax,%ebx
c01038d1:	89 d8                	mov    %ebx,%eax
c01038d3:	01 c8                	add    %ecx,%eax
c01038d5:	8b 48 3c             	mov    0x3c(%eax),%ecx
c01038d8:	8b 1d 40 57 11 c0    	mov    0xc0115740,%ebx
c01038de:	8b 45 e8             	mov    -0x18(%ebp),%eax
c01038e1:	c1 e0 04             	shl    $0x4,%eax
c01038e4:	89 c6                	mov    %eax,%esi
c01038e6:	c1 e6 04             	shl    $0x4,%esi
c01038e9:	29 c6                	sub    %eax,%esi
c01038eb:	89 f0                	mov    %esi,%eax
c01038ed:	01 d8                	add    %ebx,%eax
c01038ef:	8b 58 64             	mov    0x64(%eax),%ebx
c01038f2:	83 c3 01             	add    $0x1,%ebx
c01038f5:	89 58 64             	mov    %ebx,0x64(%eax)
c01038f8:	8b 58 64             	mov    0x64(%eax),%ebx
c01038fb:	b8 00 00 00 00       	mov    $0x0,%eax
c0103900:	29 d8                	sub    %ebx,%eax
c0103902:	c1 e0 0c             	shl    $0xc,%eax
c0103905:	01 c8                	add    %ecx,%eax
c0103907:	89 42 3c             	mov    %eax,0x3c(%edx)
c010390a:	8b 45 e4             	mov    -0x1c(%ebp),%eax
c010390d:	8b 55 08             	mov    0x8(%ebp),%edx
c0103910:	89 50 30             	mov    %edx,0x30(%eax)
c0103913:	8b 45 e4             	mov    -0x1c(%ebp),%eax
c0103916:	8b 40 4c             	mov    0x4c(%eax),%eax
c0103919:	8d 65 f8             	lea    -0x8(%ebp),%esp
c010391c:	5b                   	pop    %ebx
c010391d:	5e                   	pop    %esi
c010391e:	5d                   	pop    %ebp
c010391f:	c3                   	ret    

c0103920 <thread_exit>:
c0103920:	55                   	push   %ebp
c0103921:	89 e5                	mov    %esp,%ebp
c0103923:	83 ec 08             	sub    $0x8,%esp
c0103926:	a1 44 57 11 c0       	mov    0xc0115744,%eax
c010392b:	c7 40 58 00 00 00 00 	movl   $0x0,0x58(%eax)
c0103932:	83 ec 0c             	sub    $0xc,%esp
c0103935:	6a 00                	push   $0x0
c0103937:	e8 bf d6 ff ff       	call   c0100ffb <monitor>
c010393c:	83 c4 10             	add    $0x10,%esp
c010393f:	c9                   	leave  
c0103940:	c3                   	ret    

c0103941 <list_init>:
c0103941:	55                   	push   %ebp
c0103942:	89 e5                	mov    %esp,%ebp
c0103944:	8b 45 08             	mov    0x8(%ebp),%eax
c0103947:	8b 55 08             	mov    0x8(%ebp),%edx
c010394a:	89 50 04             	mov    %edx,0x4(%eax)
c010394d:	8b 45 08             	mov    0x8(%ebp),%eax
c0103950:	8b 50 04             	mov    0x4(%eax),%edx
c0103953:	8b 45 08             	mov    0x8(%ebp),%eax
c0103956:	89 10                	mov    %edx,(%eax)
c0103958:	5d                   	pop    %ebp
c0103959:	c3                   	ret    

c010395a <sem_init>:
c010395a:	55                   	push   %ebp
c010395b:	89 e5                	mov    %esp,%ebp
c010395d:	83 ec 10             	sub    $0x10,%esp
c0103960:	c7 45 fc 00 00 00 00 	movl   $0x0,-0x4(%ebp)
c0103967:	eb 3e                	jmp    c01039a7 <sem_init+0x4d>
c0103969:	8b 45 fc             	mov    -0x4(%ebp),%eax
c010396c:	c1 e0 04             	shl    $0x4,%eax
c010396f:	05 c0 7a 16 c0       	add    $0xc0167ac0,%eax
c0103974:	c7 00 00 00 00 00    	movl   $0x0,(%eax)
c010397a:	8b 45 fc             	mov    -0x4(%ebp),%eax
c010397d:	c1 e0 04             	shl    $0x4,%eax
c0103980:	05 c0 7a 16 c0       	add    $0xc0167ac0,%eax
c0103985:	83 c0 04             	add    $0x4,%eax
c0103988:	50                   	push   %eax
c0103989:	e8 b3 ff ff ff       	call   c0103941 <list_init>
c010398e:	83 c4 04             	add    $0x4,%esp
c0103991:	8b 45 fc             	mov    -0x4(%ebp),%eax
c0103994:	c1 e0 04             	shl    $0x4,%eax
c0103997:	05 c0 7a 16 c0       	add    $0xc0167ac0,%eax
c010399c:	c7 40 0c 00 00 00 00 	movl   $0x0,0xc(%eax)
c01039a3:	83 45 fc 01          	addl   $0x1,-0x4(%ebp)
c01039a7:	83 7d fc 09          	cmpl   $0x9,-0x4(%ebp)
c01039ab:	7e bc                	jle    c0103969 <sem_init+0xf>
c01039ad:	c9                   	leave  
c01039ae:	c3                   	ret    

c01039af <sem_open>:
c01039af:	55                   	push   %ebp
c01039b0:	89 e5                	mov    %esp,%ebp
c01039b2:	83 ec 28             	sub    $0x28,%esp
c01039b5:	8b 45 10             	mov    0x10(%ebp),%eax
c01039b8:	88 45 e4             	mov    %al,-0x1c(%ebp)
c01039bb:	0f be 45 e4          	movsbl -0x1c(%ebp),%eax
c01039bf:	50                   	push   %eax
c01039c0:	ff 75 0c             	pushl  0xc(%ebp)
c01039c3:	ff 75 08             	pushl  0x8(%ebp)
c01039c6:	68 14 71 10 c0       	push   $0xc0107114
c01039cb:	e8 b7 ef ff ff       	call   c0102987 <printk>
c01039d0:	83 c4 10             	add    $0x10,%esp
c01039d3:	80 7d e4 00          	cmpb   $0x0,-0x1c(%ebp)
c01039d7:	74 71                	je     c0103a4a <sem_open+0x9b>
c01039d9:	83 7d 08 00          	cmpl   $0x0,0x8(%ebp)
c01039dd:	78 06                	js     c01039e5 <sem_open+0x36>
c01039df:	83 7d 08 09          	cmpl   $0x9,0x8(%ebp)
c01039e3:	7e 0a                	jle    c01039ef <sem_open+0x40>
c01039e5:	b8 ff ff ff ff       	mov    $0xffffffff,%eax
c01039ea:	e9 ad 00 00 00       	jmp    c0103a9c <sem_open+0xed>
c01039ef:	8b 45 08             	mov    0x8(%ebp),%eax
c01039f2:	c1 e0 04             	shl    $0x4,%eax
c01039f5:	05 c0 7a 16 c0       	add    $0xc0167ac0,%eax
c01039fa:	8b 40 0c             	mov    0xc(%eax),%eax
c01039fd:	85 c0                	test   %eax,%eax
c01039ff:	74 21                	je     c0103a22 <sem_open+0x73>
c0103a01:	8b 45 08             	mov    0x8(%ebp),%eax
c0103a04:	c1 e0 04             	shl    $0x4,%eax
c0103a07:	05 c0 7a 16 c0       	add    $0xc0167ac0,%eax
c0103a0c:	8b 40 0c             	mov    0xc(%eax),%eax
c0103a0f:	8d 50 01             	lea    0x1(%eax),%edx
c0103a12:	8b 45 08             	mov    0x8(%ebp),%eax
c0103a15:	c1 e0 04             	shl    $0x4,%eax
c0103a18:	05 c0 7a 16 c0       	add    $0xc0167ac0,%eax
c0103a1d:	89 50 0c             	mov    %edx,0xc(%eax)
c0103a20:	eb 23                	jmp    c0103a45 <sem_open+0x96>
c0103a22:	8b 45 08             	mov    0x8(%ebp),%eax
c0103a25:	c1 e0 04             	shl    $0x4,%eax
c0103a28:	05 c0 7a 16 c0       	add    $0xc0167ac0,%eax
c0103a2d:	c7 40 0c 01 00 00 00 	movl   $0x1,0xc(%eax)
c0103a34:	8b 45 08             	mov    0x8(%ebp),%eax
c0103a37:	c1 e0 04             	shl    $0x4,%eax
c0103a3a:	8d 90 c0 7a 16 c0    	lea    -0x3fe98540(%eax),%edx
c0103a40:	8b 45 0c             	mov    0xc(%ebp),%eax
c0103a43:	89 02                	mov    %eax,(%edx)
c0103a45:	8b 45 08             	mov    0x8(%ebp),%eax
c0103a48:	eb 52                	jmp    c0103a9c <sem_open+0xed>
c0103a4a:	c7 45 f4 00 00 00 00 	movl   $0x0,-0xc(%ebp)
c0103a51:	eb 3e                	jmp    c0103a91 <sem_open+0xe2>
c0103a53:	8b 45 f4             	mov    -0xc(%ebp),%eax
c0103a56:	c1 e0 04             	shl    $0x4,%eax
c0103a59:	05 c0 7a 16 c0       	add    $0xc0167ac0,%eax
c0103a5e:	8b 40 0c             	mov    0xc(%eax),%eax
c0103a61:	85 c0                	test   %eax,%eax
c0103a63:	75 28                	jne    c0103a8d <sem_open+0xde>
c0103a65:	8b 45 f4             	mov    -0xc(%ebp),%eax
c0103a68:	c1 e0 04             	shl    $0x4,%eax
c0103a6b:	05 c0 7a 16 c0       	add    $0xc0167ac0,%eax
c0103a70:	c7 40 0c 01 00 00 00 	movl   $0x1,0xc(%eax)
c0103a77:	8b 45 f4             	mov    -0xc(%ebp),%eax
c0103a7a:	c1 e0 04             	shl    $0x4,%eax
c0103a7d:	8d 90 c0 7a 16 c0    	lea    -0x3fe98540(%eax),%edx
c0103a83:	8b 45 0c             	mov    0xc(%ebp),%eax
c0103a86:	89 02                	mov    %eax,(%edx)
c0103a88:	8b 45 f4             	mov    -0xc(%ebp),%eax
c0103a8b:	eb 0f                	jmp    c0103a9c <sem_open+0xed>
c0103a8d:	83 45 f4 01          	addl   $0x1,-0xc(%ebp)
c0103a91:	83 7d f4 09          	cmpl   $0x9,-0xc(%ebp)
c0103a95:	7e bc                	jle    c0103a53 <sem_open+0xa4>
c0103a97:	b8 ff ff ff ff       	mov    $0xffffffff,%eax
c0103a9c:	c9                   	leave  
c0103a9d:	c3                   	ret    

c0103a9e <sem_close>:
c0103a9e:	55                   	push   %ebp
c0103a9f:	89 e5                	mov    %esp,%ebp
c0103aa1:	83 ec 08             	sub    $0x8,%esp
c0103aa4:	83 ec 0c             	sub    $0xc,%esp
c0103aa7:	68 33 71 10 c0       	push   $0xc0107133
c0103aac:	e8 d6 ee ff ff       	call   c0102987 <printk>
c0103ab1:	83 c4 10             	add    $0x10,%esp
c0103ab4:	8b 45 08             	mov    0x8(%ebp),%eax
c0103ab7:	c1 e0 04             	shl    $0x4,%eax
c0103aba:	05 c0 7a 16 c0       	add    $0xc0167ac0,%eax
c0103abf:	8b 40 0c             	mov    0xc(%eax),%eax
c0103ac2:	85 c0                	test   %eax,%eax
c0103ac4:	75 07                	jne    c0103acd <sem_close+0x2f>
c0103ac6:	b8 ff ff ff ff       	mov    $0xffffffff,%eax
c0103acb:	eb 33                	jmp    c0103b00 <sem_close+0x62>
c0103acd:	8b 45 08             	mov    0x8(%ebp),%eax
c0103ad0:	c1 e0 04             	shl    $0x4,%eax
c0103ad3:	05 c0 7a 16 c0       	add    $0xc0167ac0,%eax
c0103ad8:	8b 40 0c             	mov    0xc(%eax),%eax
c0103adb:	8d 50 ff             	lea    -0x1(%eax),%edx
c0103ade:	8b 45 08             	mov    0x8(%ebp),%eax
c0103ae1:	c1 e0 04             	shl    $0x4,%eax
c0103ae4:	05 c0 7a 16 c0       	add    $0xc0167ac0,%eax
c0103ae9:	89 50 0c             	mov    %edx,0xc(%eax)
c0103aec:	8b 45 08             	mov    0x8(%ebp),%eax
c0103aef:	c1 e0 04             	shl    $0x4,%eax
c0103af2:	05 c0 7a 16 c0       	add    $0xc0167ac0,%eax
c0103af7:	c7 00 00 00 00 00    	movl   $0x0,(%eax)
c0103afd:	8b 45 08             	mov    0x8(%ebp),%eax
c0103b00:	c9                   	leave  
c0103b01:	c3                   	ret    

c0103b02 <sem_wait>:
c0103b02:	55                   	push   %ebp
c0103b03:	89 e5                	mov    %esp,%ebp
c0103b05:	83 ec 18             	sub    $0x18,%esp
c0103b08:	83 7d 08 00          	cmpl   $0x0,0x8(%ebp)
c0103b0c:	78 06                	js     c0103b14 <sem_wait+0x12>
c0103b0e:	83 7d 08 09          	cmpl   $0x9,0x8(%ebp)
c0103b12:	7e 07                	jle    c0103b1b <sem_wait+0x19>
c0103b14:	b8 ff ff ff ff       	mov    $0xffffffff,%eax
c0103b19:	eb 6f                	jmp    c0103b8a <sem_wait+0x88>
c0103b1b:	8b 45 08             	mov    0x8(%ebp),%eax
c0103b1e:	c1 e0 04             	shl    $0x4,%eax
c0103b21:	05 c0 7a 16 c0       	add    $0xc0167ac0,%eax
c0103b26:	8b 00                	mov    (%eax),%eax
c0103b28:	8d 50 ff             	lea    -0x1(%eax),%edx
c0103b2b:	8b 45 08             	mov    0x8(%ebp),%eax
c0103b2e:	c1 e0 04             	shl    $0x4,%eax
c0103b31:	05 c0 7a 16 c0       	add    $0xc0167ac0,%eax
c0103b36:	89 10                	mov    %edx,(%eax)
c0103b38:	8b 45 08             	mov    0x8(%ebp),%eax
c0103b3b:	c1 e0 04             	shl    $0x4,%eax
c0103b3e:	05 c0 7a 16 c0       	add    $0xc0167ac0,%eax
c0103b43:	8b 00                	mov    (%eax),%eax
c0103b45:	85 c0                	test   %eax,%eax
c0103b47:	79 3c                	jns    c0103b85 <sem_wait+0x83>
c0103b49:	a1 44 57 11 c0       	mov    0xc0115744,%eax
c0103b4e:	8b 55 08             	mov    0x8(%ebp),%edx
c0103b51:	83 c2 04             	add    $0x4,%edx
c0103b54:	89 50 58             	mov    %edx,0x58(%eax)
c0103b57:	e8 05 fa ff ff       	call   c0103561 <seek_next>
c0103b5c:	89 45 f4             	mov    %eax,-0xc(%ebp)
c0103b5f:	83 7d f4 00          	cmpl   $0x0,-0xc(%ebp)
c0103b63:	75 12                	jne    c0103b77 <sem_wait+0x75>
c0103b65:	83 ec 0c             	sub    $0xc,%esp
c0103b68:	68 3e 71 10 c0       	push   $0xc010713e
c0103b6d:	e8 15 ee ff ff       	call   c0102987 <printk>
c0103b72:	83 c4 10             	add    $0x10,%esp
c0103b75:	eb fe                	jmp    c0103b75 <sem_wait+0x73>
c0103b77:	83 ec 0c             	sub    $0xc,%esp
c0103b7a:	ff 75 f4             	pushl  -0xc(%ebp)
c0103b7d:	e8 dc f3 ff ff       	call   c0102f5e <env_run>
c0103b82:	83 c4 10             	add    $0x10,%esp
c0103b85:	b8 01 00 00 00       	mov    $0x1,%eax
c0103b8a:	c9                   	leave  
c0103b8b:	c3                   	ret    

c0103b8c <sem_post>:
c0103b8c:	55                   	push   %ebp
c0103b8d:	89 e5                	mov    %esp,%ebp
c0103b8f:	83 ec 10             	sub    $0x10,%esp
c0103b92:	83 7d 08 00          	cmpl   $0x0,0x8(%ebp)
c0103b96:	78 06                	js     c0103b9e <sem_post+0x12>
c0103b98:	83 7d 08 09          	cmpl   $0x9,0x8(%ebp)
c0103b9c:	7e 0a                	jle    c0103ba8 <sem_post+0x1c>
c0103b9e:	b8 ff ff ff ff       	mov    $0xffffffff,%eax
c0103ba3:	e9 8a 00 00 00       	jmp    c0103c32 <sem_post+0xa6>
c0103ba8:	8b 45 08             	mov    0x8(%ebp),%eax
c0103bab:	c1 e0 04             	shl    $0x4,%eax
c0103bae:	05 c0 7a 16 c0       	add    $0xc0167ac0,%eax
c0103bb3:	8b 00                	mov    (%eax),%eax
c0103bb5:	8d 50 01             	lea    0x1(%eax),%edx
c0103bb8:	8b 45 08             	mov    0x8(%ebp),%eax
c0103bbb:	c1 e0 04             	shl    $0x4,%eax
c0103bbe:	05 c0 7a 16 c0       	add    $0xc0167ac0,%eax
c0103bc3:	89 10                	mov    %edx,(%eax)
c0103bc5:	8b 45 08             	mov    0x8(%ebp),%eax
c0103bc8:	c1 e0 04             	shl    $0x4,%eax
c0103bcb:	05 c0 7a 16 c0       	add    $0xc0167ac0,%eax
c0103bd0:	8b 00                	mov    (%eax),%eax
c0103bd2:	85 c0                	test   %eax,%eax
c0103bd4:	7f 57                	jg     c0103c2d <sem_post+0xa1>
c0103bd6:	c7 45 fc 00 00 00 00 	movl   $0x0,-0x4(%ebp)
c0103bdd:	eb 2a                	jmp    c0103c09 <sem_post+0x7d>
c0103bdf:	8b 15 40 57 11 c0    	mov    0xc0115740,%edx
c0103be5:	8b 45 fc             	mov    -0x4(%ebp),%eax
c0103be8:	c1 e0 04             	shl    $0x4,%eax
c0103beb:	89 c1                	mov    %eax,%ecx
c0103bed:	c1 e1 04             	shl    $0x4,%ecx
c0103bf0:	29 c1                	sub    %eax,%ecx
c0103bf2:	89 c8                	mov    %ecx,%eax
c0103bf4:	01 d0                	add    %edx,%eax
c0103bf6:	8b 40 58             	mov    0x58(%eax),%eax
c0103bf9:	8b 55 08             	mov    0x8(%ebp),%edx
c0103bfc:	83 c2 04             	add    $0x4,%edx
c0103bff:	39 d0                	cmp    %edx,%eax
c0103c01:	75 02                	jne    c0103c05 <sem_post+0x79>
c0103c03:	eb 0a                	jmp    c0103c0f <sem_post+0x83>
c0103c05:	83 45 fc 01          	addl   $0x1,-0x4(%ebp)
c0103c09:	83 7d fc 1f          	cmpl   $0x1f,-0x4(%ebp)
c0103c0d:	7e d0                	jle    c0103bdf <sem_post+0x53>
c0103c0f:	8b 15 40 57 11 c0    	mov    0xc0115740,%edx
c0103c15:	8b 45 fc             	mov    -0x4(%ebp),%eax
c0103c18:	c1 e0 04             	shl    $0x4,%eax
c0103c1b:	89 c1                	mov    %eax,%ecx
c0103c1d:	c1 e1 04             	shl    $0x4,%ecx
c0103c20:	29 c1                	sub    %eax,%ecx
c0103c22:	89 c8                	mov    %ecx,%eax
c0103c24:	01 d0                	add    %edx,%eax
c0103c26:	c7 40 58 01 00 00 00 	movl   $0x1,0x58(%eax)
c0103c2d:	b8 01 00 00 00       	mov    $0x1,%eax
c0103c32:	c9                   	leave  
c0103c33:	c3                   	ret    

c0103c34 <in_byte>:
c0103c34:	55                   	push   %ebp
c0103c35:	89 e5                	mov    %esp,%ebp
c0103c37:	83 ec 14             	sub    $0x14,%esp
c0103c3a:	8b 45 08             	mov    0x8(%ebp),%eax
c0103c3d:	66 89 45 ec          	mov    %ax,-0x14(%ebp)
c0103c41:	0f b7 45 ec          	movzwl -0x14(%ebp),%eax
c0103c45:	89 c2                	mov    %eax,%edx
c0103c47:	ec                   	in     (%dx),%al
c0103c48:	88 45 ff             	mov    %al,-0x1(%ebp)
c0103c4b:	0f b6 45 ff          	movzbl -0x1(%ebp),%eax
c0103c4f:	c9                   	leave  
c0103c50:	c3                   	ret    

c0103c51 <in_long>:
c0103c51:	55                   	push   %ebp
c0103c52:	89 e5                	mov    %esp,%ebp
c0103c54:	83 ec 14             	sub    $0x14,%esp
c0103c57:	8b 45 08             	mov    0x8(%ebp),%eax
c0103c5a:	66 89 45 ec          	mov    %ax,-0x14(%ebp)
c0103c5e:	0f b7 45 ec          	movzwl -0x14(%ebp),%eax
c0103c62:	89 c2                	mov    %eax,%edx
c0103c64:	ed                   	in     (%dx),%eax
c0103c65:	89 45 fc             	mov    %eax,-0x4(%ebp)
c0103c68:	8b 45 fc             	mov    -0x4(%ebp),%eax
c0103c6b:	c9                   	leave  
c0103c6c:	c3                   	ret    

c0103c6d <out_byte>:
c0103c6d:	55                   	push   %ebp
c0103c6e:	89 e5                	mov    %esp,%ebp
c0103c70:	83 ec 08             	sub    $0x8,%esp
c0103c73:	8b 55 08             	mov    0x8(%ebp),%edx
c0103c76:	8b 45 0c             	mov    0xc(%ebp),%eax
c0103c79:	66 89 55 fc          	mov    %dx,-0x4(%ebp)
c0103c7d:	88 45 f8             	mov    %al,-0x8(%ebp)
c0103c80:	0f b6 45 f8          	movzbl -0x8(%ebp),%eax
c0103c84:	0f b7 55 fc          	movzwl -0x4(%ebp),%edx
c0103c88:	ee                   	out    %al,(%dx)
c0103c89:	c9                   	leave  
c0103c8a:	c3                   	ret    

c0103c8b <bootmain2>:
c0103c8b:	55                   	push   %ebp
c0103c8c:	89 e5                	mov    %esp,%ebp
c0103c8e:	83 ec 28             	sub    $0x28,%esp
c0103c91:	c7 45 f0 00 80 00 00 	movl   $0x8000,-0x10(%ebp)
c0103c98:	83 ec 0c             	sub    $0xc,%esp
c0103c9b:	68 52 71 10 c0       	push   $0xc0107152
c0103ca0:	e8 b5 1f 00 00       	call   c0105c5a <fs_open>
c0103ca5:	83 c4 10             	add    $0x10,%esp
c0103ca8:	89 45 ec             	mov    %eax,-0x14(%ebp)
c0103cab:	83 ec 04             	sub    $0x4,%esp
c0103cae:	68 00 10 00 00       	push   $0x1000
c0103cb3:	ff 75 f0             	pushl  -0x10(%ebp)
c0103cb6:	ff 75 ec             	pushl  -0x14(%ebp)
c0103cb9:	e8 7c 22 00 00       	call   c0105f3a <fs_read>
c0103cbe:	83 c4 10             	add    $0x10,%esp
c0103cc1:	83 ec 0c             	sub    $0xc,%esp
c0103cc4:	ff 75 ec             	pushl  -0x14(%ebp)
c0103cc7:	e8 83 2b 00 00       	call   c010684f <fs_rewind>
c0103ccc:	83 c4 10             	add    $0x10,%esp
c0103ccf:	8b 45 f0             	mov    -0x10(%ebp),%eax
c0103cd2:	8b 00                	mov    (%eax),%eax
c0103cd4:	3d 7f 45 4c 46       	cmp    $0x464c457f,%eax
c0103cd9:	74 12                	je     c0103ced <bootmain2+0x62>
c0103cdb:	83 ec 0c             	sub    $0xc,%esp
c0103cde:	68 5b 71 10 c0       	push   $0xc010715b
c0103ce3:	e8 9f ec ff ff       	call   c0102987 <printk>
c0103ce8:	83 c4 10             	add    $0x10,%esp
c0103ceb:	eb fe                	jmp    c0103ceb <bootmain2+0x60>
c0103ced:	c7 45 f4 00 00 00 00 	movl   $0x0,-0xc(%ebp)
c0103cf4:	e9 a8 00 00 00       	jmp    c0103da1 <bootmain2+0x116>
c0103cf9:	8b 45 f0             	mov    -0x10(%ebp),%eax
c0103cfc:	8b 50 1c             	mov    0x1c(%eax),%edx
c0103cff:	8b 45 f0             	mov    -0x10(%ebp),%eax
c0103d02:	0f b7 40 2a          	movzwl 0x2a(%eax),%eax
c0103d06:	0f b7 c0             	movzwl %ax,%eax
c0103d09:	0f af 45 f4          	imul   -0xc(%ebp),%eax
c0103d0d:	01 c2                	add    %eax,%edx
c0103d0f:	8b 45 f0             	mov    -0x10(%ebp),%eax
c0103d12:	01 d0                	add    %edx,%eax
c0103d14:	89 45 e8             	mov    %eax,-0x18(%ebp)
c0103d17:	8b 45 e8             	mov    -0x18(%ebp),%eax
c0103d1a:	8b 00                	mov    (%eax),%eax
c0103d1c:	83 f8 01             	cmp    $0x1,%eax
c0103d1f:	75 7c                	jne    c0103d9d <bootmain2+0x112>
c0103d21:	8b 45 e8             	mov    -0x18(%ebp),%eax
c0103d24:	8b 40 14             	mov    0x14(%eax),%eax
c0103d27:	8b 55 e8             	mov    -0x18(%ebp),%edx
c0103d2a:	8b 52 08             	mov    0x8(%edx),%edx
c0103d2d:	83 ec 04             	sub    $0x4,%esp
c0103d30:	50                   	push   %eax
c0103d31:	52                   	push   %edx
c0103d32:	ff 75 08             	pushl  0x8(%ebp)
c0103d35:	e8 fe 01 00 00       	call   c0103f38 <region_alloc>
c0103d3a:	83 c4 10             	add    $0x10,%esp
c0103d3d:	8b 45 e8             	mov    -0x18(%ebp),%eax
c0103d40:	8b 40 04             	mov    0x4(%eax),%eax
c0103d43:	83 ec 04             	sub    $0x4,%esp
c0103d46:	6a 00                	push   $0x0
c0103d48:	50                   	push   %eax
c0103d49:	ff 75 ec             	pushl  -0x14(%ebp)
c0103d4c:	e8 bc 29 00 00       	call   c010670d <fs_lseek>
c0103d51:	83 c4 10             	add    $0x10,%esp
c0103d54:	8b 45 e8             	mov    -0x18(%ebp),%eax
c0103d57:	8b 40 10             	mov    0x10(%eax),%eax
c0103d5a:	89 c2                	mov    %eax,%edx
c0103d5c:	8b 45 e8             	mov    -0x18(%ebp),%eax
c0103d5f:	8b 40 08             	mov    0x8(%eax),%eax
c0103d62:	83 ec 04             	sub    $0x4,%esp
c0103d65:	52                   	push   %edx
c0103d66:	50                   	push   %eax
c0103d67:	ff 75 ec             	pushl  -0x14(%ebp)
c0103d6a:	e8 cb 21 00 00       	call   c0105f3a <fs_read>
c0103d6f:	83 c4 10             	add    $0x10,%esp
c0103d72:	8b 45 e8             	mov    -0x18(%ebp),%eax
c0103d75:	8b 50 14             	mov    0x14(%eax),%edx
c0103d78:	8b 45 e8             	mov    -0x18(%ebp),%eax
c0103d7b:	8b 40 10             	mov    0x10(%eax),%eax
c0103d7e:	29 c2                	sub    %eax,%edx
c0103d80:	8b 45 e8             	mov    -0x18(%ebp),%eax
c0103d83:	8b 48 08             	mov    0x8(%eax),%ecx
c0103d86:	8b 45 e8             	mov    -0x18(%ebp),%eax
c0103d89:	8b 40 10             	mov    0x10(%eax),%eax
c0103d8c:	01 c8                	add    %ecx,%eax
c0103d8e:	83 ec 04             	sub    $0x4,%esp
c0103d91:	52                   	push   %edx
c0103d92:	6a 00                	push   $0x0
c0103d94:	50                   	push   %eax
c0103d95:	e8 82 e7 ff ff       	call   c010251c <memset>
c0103d9a:	83 c4 10             	add    $0x10,%esp
c0103d9d:	83 45 f4 01          	addl   $0x1,-0xc(%ebp)
c0103da1:	8b 45 f0             	mov    -0x10(%ebp),%eax
c0103da4:	0f b7 40 2c          	movzwl 0x2c(%eax),%eax
c0103da8:	0f b7 c0             	movzwl %ax,%eax
c0103dab:	3b 45 f4             	cmp    -0xc(%ebp),%eax
c0103dae:	0f 8f 45 ff ff ff    	jg     c0103cf9 <bootmain2+0x6e>
c0103db4:	83 ec 04             	sub    $0x4,%esp
c0103db7:	68 00 80 00 00       	push   $0x8000
c0103dbc:	68 00 60 bf be       	push   $0xbebf6000
c0103dc1:	ff 75 08             	pushl  0x8(%ebp)
c0103dc4:	e8 6f 01 00 00       	call   c0103f38 <region_alloc>
c0103dc9:	83 c4 10             	add    $0x10,%esp
c0103dcc:	83 ec 04             	sub    $0x4,%esp
c0103dcf:	68 00 80 00 00       	push   $0x8000
c0103dd4:	68 00 e0 bf be       	push   $0xbebfe000
c0103dd9:	ff 75 08             	pushl  0x8(%ebp)
c0103ddc:	e8 57 01 00 00       	call   c0103f38 <region_alloc>
c0103de1:	83 c4 10             	add    $0x10,%esp
c0103de4:	8b 45 f0             	mov    -0x10(%ebp),%eax
c0103de7:	8b 40 18             	mov    0x18(%eax),%eax
c0103dea:	89 45 e4             	mov    %eax,-0x1c(%ebp)
c0103ded:	8b 45 e4             	mov    -0x1c(%ebp),%eax
c0103df0:	c9                   	leave  
c0103df1:	c3                   	ret    

c0103df2 <waitdisk>:
c0103df2:	55                   	push   %ebp
c0103df3:	89 e5                	mov    %esp,%ebp
c0103df5:	90                   	nop
c0103df6:	68 f7 01 00 00       	push   $0x1f7
c0103dfb:	e8 34 fe ff ff       	call   c0103c34 <in_byte>
c0103e00:	83 c4 04             	add    $0x4,%esp
c0103e03:	0f be c0             	movsbl %al,%eax
c0103e06:	25 c0 00 00 00       	and    $0xc0,%eax
c0103e0b:	83 f8 40             	cmp    $0x40,%eax
c0103e0e:	75 e6                	jne    c0103df6 <waitdisk+0x4>
c0103e10:	c9                   	leave  
c0103e11:	c3                   	ret    

c0103e12 <readsect>:
c0103e12:	55                   	push   %ebp
c0103e13:	89 e5                	mov    %esp,%ebp
c0103e15:	53                   	push   %ebx
c0103e16:	83 ec 10             	sub    $0x10,%esp
c0103e19:	e8 d4 ff ff ff       	call   c0103df2 <waitdisk>
c0103e1e:	6a 01                	push   $0x1
c0103e20:	68 f2 01 00 00       	push   $0x1f2
c0103e25:	e8 43 fe ff ff       	call   c0103c6d <out_byte>
c0103e2a:	83 c4 08             	add    $0x8,%esp
c0103e2d:	8b 45 0c             	mov    0xc(%ebp),%eax
c0103e30:	0f be c0             	movsbl %al,%eax
c0103e33:	50                   	push   %eax
c0103e34:	68 f3 01 00 00       	push   $0x1f3
c0103e39:	e8 2f fe ff ff       	call   c0103c6d <out_byte>
c0103e3e:	83 c4 08             	add    $0x8,%esp
c0103e41:	8b 45 0c             	mov    0xc(%ebp),%eax
c0103e44:	c1 f8 08             	sar    $0x8,%eax
c0103e47:	0f be c0             	movsbl %al,%eax
c0103e4a:	50                   	push   %eax
c0103e4b:	68 f4 01 00 00       	push   $0x1f4
c0103e50:	e8 18 fe ff ff       	call   c0103c6d <out_byte>
c0103e55:	83 c4 08             	add    $0x8,%esp
c0103e58:	8b 45 0c             	mov    0xc(%ebp),%eax
c0103e5b:	c1 f8 10             	sar    $0x10,%eax
c0103e5e:	0f be c0             	movsbl %al,%eax
c0103e61:	50                   	push   %eax
c0103e62:	68 f5 01 00 00       	push   $0x1f5
c0103e67:	e8 01 fe ff ff       	call   c0103c6d <out_byte>
c0103e6c:	83 c4 08             	add    $0x8,%esp
c0103e6f:	8b 45 0c             	mov    0xc(%ebp),%eax
c0103e72:	c1 f8 18             	sar    $0x18,%eax
c0103e75:	83 c8 e0             	or     $0xffffffe0,%eax
c0103e78:	0f be c0             	movsbl %al,%eax
c0103e7b:	50                   	push   %eax
c0103e7c:	68 f6 01 00 00       	push   $0x1f6
c0103e81:	e8 e7 fd ff ff       	call   c0103c6d <out_byte>
c0103e86:	83 c4 08             	add    $0x8,%esp
c0103e89:	6a 20                	push   $0x20
c0103e8b:	68 f7 01 00 00       	push   $0x1f7
c0103e90:	e8 d8 fd ff ff       	call   c0103c6d <out_byte>
c0103e95:	83 c4 08             	add    $0x8,%esp
c0103e98:	e8 55 ff ff ff       	call   c0103df2 <waitdisk>
c0103e9d:	c7 45 f8 00 00 00 00 	movl   $0x0,-0x8(%ebp)
c0103ea4:	eb 23                	jmp    c0103ec9 <readsect+0xb7>
c0103ea6:	8b 45 f8             	mov    -0x8(%ebp),%eax
c0103ea9:	8d 14 85 00 00 00 00 	lea    0x0(,%eax,4),%edx
c0103eb0:	8b 45 08             	mov    0x8(%ebp),%eax
c0103eb3:	8d 1c 02             	lea    (%edx,%eax,1),%ebx
c0103eb6:	68 f0 01 00 00       	push   $0x1f0
c0103ebb:	e8 91 fd ff ff       	call   c0103c51 <in_long>
c0103ec0:	83 c4 04             	add    $0x4,%esp
c0103ec3:	89 03                	mov    %eax,(%ebx)
c0103ec5:	83 45 f8 01          	addl   $0x1,-0x8(%ebp)
c0103ec9:	83 7d f8 7f          	cmpl   $0x7f,-0x8(%ebp)
c0103ecd:	7e d7                	jle    c0103ea6 <readsect+0x94>
c0103ecf:	8b 5d fc             	mov    -0x4(%ebp),%ebx
c0103ed2:	c9                   	leave  
c0103ed3:	c3                   	ret    

c0103ed4 <readseg>:
c0103ed4:	55                   	push   %ebp
c0103ed5:	89 e5                	mov    %esp,%ebp
c0103ed7:	83 ec 10             	sub    $0x10,%esp
c0103eda:	8b 55 0c             	mov    0xc(%ebp),%edx
c0103edd:	8b 45 08             	mov    0x8(%ebp),%eax
c0103ee0:	01 d0                	add    %edx,%eax
c0103ee2:	89 45 fc             	mov    %eax,-0x4(%ebp)
c0103ee5:	8b 45 10             	mov    0x10(%ebp),%eax
c0103ee8:	99                   	cltd   
c0103ee9:	c1 ea 17             	shr    $0x17,%edx
c0103eec:	01 d0                	add    %edx,%eax
c0103eee:	25 ff 01 00 00       	and    $0x1ff,%eax
c0103ef3:	29 d0                	sub    %edx,%eax
c0103ef5:	f7 d8                	neg    %eax
c0103ef7:	01 45 08             	add    %eax,0x8(%ebp)
c0103efa:	8b 45 10             	mov    0x10(%ebp),%eax
c0103efd:	8d 90 ff 01 00 00    	lea    0x1ff(%eax),%edx
c0103f03:	85 c0                	test   %eax,%eax
c0103f05:	0f 48 c2             	cmovs  %edx,%eax
c0103f08:	c1 f8 09             	sar    $0x9,%eax
c0103f0b:	05 c9 00 00 00       	add    $0xc9,%eax
c0103f10:	89 45 10             	mov    %eax,0x10(%ebp)
c0103f13:	eb 19                	jmp    c0103f2e <readseg+0x5a>
c0103f15:	ff 75 10             	pushl  0x10(%ebp)
c0103f18:	ff 75 08             	pushl  0x8(%ebp)
c0103f1b:	e8 f2 fe ff ff       	call   c0103e12 <readsect>
c0103f20:	83 c4 08             	add    $0x8,%esp
c0103f23:	81 45 08 00 02 00 00 	addl   $0x200,0x8(%ebp)
c0103f2a:	83 45 10 01          	addl   $0x1,0x10(%ebp)
c0103f2e:	8b 45 08             	mov    0x8(%ebp),%eax
c0103f31:	3b 45 fc             	cmp    -0x4(%ebp),%eax
c0103f34:	72 df                	jb     c0103f15 <readseg+0x41>
c0103f36:	c9                   	leave  
c0103f37:	c3                   	ret    

c0103f38 <region_alloc>:
c0103f38:	55                   	push   %ebp
c0103f39:	89 e5                	mov    %esp,%ebp
c0103f3b:	83 ec 28             	sub    $0x28,%esp
c0103f3e:	8b 45 0c             	mov    0xc(%ebp),%eax
c0103f41:	89 45 f0             	mov    %eax,-0x10(%ebp)
c0103f44:	8b 45 f0             	mov    -0x10(%ebp),%eax
c0103f47:	25 00 f0 ff ff       	and    $0xfffff000,%eax
c0103f4c:	89 45 f4             	mov    %eax,-0xc(%ebp)
c0103f4f:	eb 2b                	jmp    c0103f7c <region_alloc+0x44>
c0103f51:	83 ec 0c             	sub    $0xc,%esp
c0103f54:	6a 01                	push   $0x1
c0103f56:	e8 d1 07 00 00       	call   c010472c <page_alloc>
c0103f5b:	83 c4 10             	add    $0x10,%esp
c0103f5e:	89 45 e4             	mov    %eax,-0x1c(%ebp)
c0103f61:	8b 45 f4             	mov    -0xc(%ebp),%eax
c0103f64:	6a 06                	push   $0x6
c0103f66:	50                   	push   %eax
c0103f67:	ff 75 e4             	pushl  -0x1c(%ebp)
c0103f6a:	ff 75 08             	pushl  0x8(%ebp)
c0103f6d:	e8 bd 09 00 00       	call   c010492f <page_insert>
c0103f72:	83 c4 10             	add    $0x10,%esp
c0103f75:	81 45 f4 00 10 00 00 	addl   $0x1000,-0xc(%ebp)
c0103f7c:	c7 45 ec 00 10 00 00 	movl   $0x1000,-0x14(%ebp)
c0103f83:	8b 55 0c             	mov    0xc(%ebp),%edx
c0103f86:	8b 45 10             	mov    0x10(%ebp),%eax
c0103f89:	01 c2                	add    %eax,%edx
c0103f8b:	8b 45 ec             	mov    -0x14(%ebp),%eax
c0103f8e:	01 d0                	add    %edx,%eax
c0103f90:	83 e8 01             	sub    $0x1,%eax
c0103f93:	89 45 e8             	mov    %eax,-0x18(%ebp)
c0103f96:	8b 45 e8             	mov    -0x18(%ebp),%eax
c0103f99:	ba 00 00 00 00       	mov    $0x0,%edx
c0103f9e:	f7 75 ec             	divl   -0x14(%ebp)
c0103fa1:	8b 45 e8             	mov    -0x18(%ebp),%eax
c0103fa4:	29 d0                	sub    %edx,%eax
c0103fa6:	3b 45 f4             	cmp    -0xc(%ebp),%eax
c0103fa9:	77 a6                	ja     c0103f51 <region_alloc+0x19>
c0103fab:	c9                   	leave  
c0103fac:	c3                   	ret    

c0103fad <game_init>:
c0103fad:	55                   	push   %ebp
c0103fae:	89 e5                	mov    %esp,%ebp
c0103fb0:	83 ec 18             	sub    $0x18,%esp
c0103fb3:	e8 a2 0c 00 00       	call   c0104c5a <init_segment>
c0103fb8:	e8 91 13 00 00       	call   c010534e <init_serial>
c0103fbd:	e8 63 14 00 00       	call   c0105425 <init_timer>
c0103fc2:	e8 42 0f 00 00       	call   c0104f09 <init_idt>
c0103fc7:	e8 4d 0d 00 00       	call   c0104d19 <init_intr>
c0103fcc:	e8 b3 05 00 00       	call   c0104584 <mem_init>
c0103fd1:	e8 42 eb ff ff       	call   c0102b18 <env_init>
c0103fd6:	e8 7f f9 ff ff       	call   c010395a <sem_init>
c0103fdb:	83 ec 08             	sub    $0x8,%esp
c0103fde:	68 c9 00 00 00       	push   $0xc9
c0103fe3:	68 00 5d 15 c0       	push   $0xc0155d00
c0103fe8:	e8 25 fe ff ff       	call   c0103e12 <readsect>
c0103fed:	83 c4 10             	add    $0x10,%esp
c0103ff0:	a1 00 5d 15 c0       	mov    0xc0155d00,%eax
c0103ff5:	89 45 f0             	mov    %eax,-0x10(%ebp)
c0103ff8:	83 ec 08             	sub    $0x8,%esp
c0103ffb:	ff 75 f0             	pushl  -0x10(%ebp)
c0103ffe:	68 66 71 10 c0       	push   $0xc0107166
c0104003:	e8 7f e9 ff ff       	call   c0102987 <printk>
c0104008:	83 c4 10             	add    $0x10,%esp
c010400b:	8b 45 f0             	mov    -0x10(%ebp),%eax
c010400e:	05 ca 00 00 00       	add    $0xca,%eax
c0104013:	83 ec 08             	sub    $0x8,%esp
c0104016:	50                   	push   %eax
c0104017:	68 40 88 15 c0       	push   $0xc0158840
c010401c:	e8 f1 fd ff ff       	call   c0103e12 <readsect>
c0104021:	83 c4 10             	add    $0x10,%esp
c0104024:	83 ec 08             	sub    $0x8,%esp
c0104027:	68 40 88 15 c0       	push   $0xc0158840
c010402c:	68 71 71 10 c0       	push   $0xc0107171
c0104031:	e8 51 e9 ff ff       	call   c0102987 <printk>
c0104036:	83 c4 10             	add    $0x10,%esp
c0104039:	c7 05 34 88 15 c0 00 	movl   $0x0,0xc0158834
c0104040:	00 00 00 
c0104043:	c7 45 f4 00 00 00 00 	movl   $0x0,-0xc(%ebp)
c010404a:	eb 20                	jmp    c010406c <game_init+0xbf>
c010404c:	8b 45 f4             	mov    -0xc(%ebp),%eax
c010404f:	c1 e0 06             	shl    $0x6,%eax
c0104052:	05 40 88 15 c0       	add    $0xc0158840,%eax
c0104057:	83 ec 08             	sub    $0x8,%esp
c010405a:	50                   	push   %eax
c010405b:	68 71 71 10 c0       	push   $0xc0107171
c0104060:	e8 22 e9 ff ff       	call   c0102987 <printk>
c0104065:	83 c4 10             	add    $0x10,%esp
c0104068:	83 45 f4 01          	addl   $0x1,-0xc(%ebp)
c010406c:	8b 45 f4             	mov    -0xc(%ebp),%eax
c010406f:	83 f8 07             	cmp    $0x7,%eax
c0104072:	76 d8                	jbe    c010404c <game_init+0x9f>
c0104074:	c7 05 40 52 16 c0 40 	movl   $0xc0158840,0xc0165240
c010407b:	88 15 c0 
c010407e:	a1 44 57 11 c0       	mov    0xc0115744,%eax
c0104083:	c7 40 6c 01 00 00 00 	movl   $0x1,0x6c(%eax)
c010408a:	a1 44 57 11 c0       	mov    0xc0115744,%eax
c010408f:	c7 40 70 00 00 00 00 	movl   $0x0,0x70(%eax)
c0104096:	a1 44 57 11 c0       	mov    0xc0115744,%eax
c010409b:	c7 40 68 00 00 00 00 	movl   $0x0,0x68(%eax)
c01040a2:	83 ec 0c             	sub    $0xc,%esp
c01040a5:	68 95 36 10 c0       	push   $0xc0103695
c01040aa:	e8 af 10 00 00       	call   c010515e <set_timer_intr_handler>
c01040af:	83 c4 10             	add    $0x10,%esp
c01040b2:	e8 4e bf ff ff       	call   c0100005 <i386_init>
c01040b7:	e8 76 de ff ff       	call   c0101f32 <cons_init>
c01040bc:	e8 72 ee ff ff       	call   c0102f33 <env_create>
c01040c1:	83 ec 0c             	sub    $0xc,%esp
c01040c4:	50                   	push   %eax
c01040c5:	e8 94 ee ff ff       	call   c0102f5e <env_run>
c01040ca:	83 c4 10             	add    $0x10,%esp
c01040cd:	c9                   	leave  
c01040ce:	c3                   	ret    

c01040cf <in_byte>:
c01040cf:	55                   	push   %ebp
c01040d0:	89 e5                	mov    %esp,%ebp
c01040d2:	83 ec 14             	sub    $0x14,%esp
c01040d5:	8b 45 08             	mov    0x8(%ebp),%eax
c01040d8:	66 89 45 ec          	mov    %ax,-0x14(%ebp)
c01040dc:	0f b7 45 ec          	movzwl -0x14(%ebp),%eax
c01040e0:	89 c2                	mov    %eax,%edx
c01040e2:	ec                   	in     (%dx),%al
c01040e3:	88 45 ff             	mov    %al,-0x1(%ebp)
c01040e6:	0f b6 45 ff          	movzbl -0x1(%ebp),%eax
c01040ea:	c9                   	leave  
c01040eb:	c3                   	ret    

c01040ec <out_byte>:
c01040ec:	55                   	push   %ebp
c01040ed:	89 e5                	mov    %esp,%ebp
c01040ef:	83 ec 08             	sub    $0x8,%esp
c01040f2:	8b 55 08             	mov    0x8(%ebp),%edx
c01040f5:	8b 45 0c             	mov    0xc(%ebp),%eax
c01040f8:	66 89 55 fc          	mov    %dx,-0x4(%ebp)
c01040fc:	88 45 f8             	mov    %al,-0x8(%ebp)
c01040ff:	0f b6 45 f8          	movzbl -0x8(%ebp),%eax
c0104103:	0f b7 55 fc          	movzwl -0x4(%ebp),%edx
c0104107:	ee                   	out    %al,(%dx)
c0104108:	c9                   	leave  
c0104109:	c3                   	ret    

c010410a <syscall>:
c010410a:	55                   	push   %ebp
c010410b:	89 e5                	mov    %esp,%ebp
c010410d:	53                   	push   %ebx
c010410e:	83 ec 10             	sub    $0x10,%esp
c0104111:	8d 45 08             	lea    0x8(%ebp),%eax
c0104114:	89 45 f8             	mov    %eax,-0x8(%ebp)
c0104117:	8b 45 f8             	mov    -0x8(%ebp),%eax
c010411a:	8b 00                	mov    (%eax),%eax
c010411c:	8b 55 f8             	mov    -0x8(%ebp),%edx
c010411f:	83 c2 04             	add    $0x4,%edx
c0104122:	8b 1a                	mov    (%edx),%ebx
c0104124:	8b 55 f8             	mov    -0x8(%ebp),%edx
c0104127:	83 c2 08             	add    $0x8,%edx
c010412a:	8b 0a                	mov    (%edx),%ecx
c010412c:	8b 55 f8             	mov    -0x8(%ebp),%edx
c010412f:	83 c2 0c             	add    $0xc,%edx
c0104132:	8b 12                	mov    (%edx),%edx
c0104134:	cd 80                	int    $0x80
c0104136:	89 45 f4             	mov    %eax,-0xc(%ebp)
c0104139:	8b 45 f4             	mov    -0xc(%ebp),%eax
c010413c:	83 c4 10             	add    $0x10,%esp
c010413f:	5b                   	pop    %ebx
c0104140:	5d                   	pop    %ebp
c0104141:	c3                   	ret    

c0104142 <serial_idle>:
c0104142:	55                   	push   %ebp
c0104143:	89 e5                	mov    %esp,%ebp
c0104145:	68 fd 03 00 00       	push   $0x3fd
c010414a:	e8 80 ff ff ff       	call   c01040cf <in_byte>
c010414f:	83 c4 04             	add    $0x4,%esp
c0104152:	0f b6 c0             	movzbl %al,%eax
c0104155:	83 e0 20             	and    $0x20,%eax
c0104158:	85 c0                	test   %eax,%eax
c010415a:	0f 95 c0             	setne  %al
c010415d:	0f b6 c0             	movzbl %al,%eax
c0104160:	c9                   	leave  
c0104161:	c3                   	ret    

c0104162 <do_syscall>:
c0104162:	55                   	push   %ebp
c0104163:	89 e5                	mov    %esp,%ebp
c0104165:	83 ec 18             	sub    $0x18,%esp
c0104168:	8b 45 08             	mov    0x8(%ebp),%eax
c010416b:	8b 40 1c             	mov    0x1c(%eax),%eax
c010416e:	83 f8 1b             	cmp    $0x1b,%eax
c0104171:	0f 87 a1 02 00 00    	ja     c0104418 <do_syscall+0x2b6>
c0104177:	8b 04 85 98 71 10 c0 	mov    -0x3fef8e68(,%eax,4),%eax
c010417e:	ff e0                	jmp    *%eax
c0104180:	8b 45 08             	mov    0x8(%ebp),%eax
c0104183:	8b 40 10             	mov    0x10(%eax),%eax
c0104186:	83 ec 0c             	sub    $0xc,%esp
c0104189:	50                   	push   %eax
c010418a:	e8 cf 0f 00 00       	call   c010515e <set_timer_intr_handler>
c010418f:	83 c4 10             	add    $0x10,%esp
c0104192:	e9 99 02 00 00       	jmp    c0104430 <do_syscall+0x2ce>
c0104197:	8b 45 08             	mov    0x8(%ebp),%eax
c010419a:	8b 40 18             	mov    0x18(%eax),%eax
c010419d:	88 45 f7             	mov    %al,-0x9(%ebp)
c01041a0:	90                   	nop
c01041a1:	e8 9c ff ff ff       	call   c0104142 <serial_idle>
c01041a6:	83 f8 01             	cmp    $0x1,%eax
c01041a9:	75 f6                	jne    c01041a1 <do_syscall+0x3f>
c01041ab:	0f be 45 f7          	movsbl -0x9(%ebp),%eax
c01041af:	83 ec 08             	sub    $0x8,%esp
c01041b2:	50                   	push   %eax
c01041b3:	68 f8 03 00 00       	push   $0x3f8
c01041b8:	e8 2f ff ff ff       	call   c01040ec <out_byte>
c01041bd:	83 c4 10             	add    $0x10,%esp
c01041c0:	e9 6b 02 00 00       	jmp    c0104430 <do_syscall+0x2ce>
c01041c5:	8b 45 08             	mov    0x8(%ebp),%eax
c01041c8:	8b 40 10             	mov    0x10(%eax),%eax
c01041cb:	83 ec 0c             	sub    $0xc,%esp
c01041ce:	50                   	push   %eax
c01041cf:	e8 97 0f 00 00       	call   c010516b <set_keyboard_intr_handler>
c01041d4:	83 c4 10             	add    $0x10,%esp
c01041d7:	e9 54 02 00 00       	jmp    c0104430 <do_syscall+0x2ce>
c01041dc:	a1 48 57 11 c0       	mov    0xc0115748,%eax
c01041e1:	89 c2                	mov    %eax,%edx
c01041e3:	8b 45 08             	mov    0x8(%ebp),%eax
c01041e6:	89 50 1c             	mov    %edx,0x1c(%eax)
c01041e9:	e9 42 02 00 00       	jmp    c0104430 <do_syscall+0x2ce>
c01041ee:	e8 78 f1 ff ff       	call   c010336b <fork>
c01041f3:	89 c2                	mov    %eax,%edx
c01041f5:	8b 45 08             	mov    0x8(%ebp),%eax
c01041f8:	89 50 1c             	mov    %edx,0x1c(%eax)
c01041fb:	e9 30 02 00 00       	jmp    c0104430 <do_syscall+0x2ce>
c0104200:	8b 45 08             	mov    0x8(%ebp),%eax
c0104203:	8b 40 10             	mov    0x10(%eax),%eax
c0104206:	89 c2                	mov    %eax,%edx
c0104208:	a1 44 57 11 c0       	mov    0xc0115744,%eax
c010420d:	83 ec 08             	sub    $0x8,%esp
c0104210:	52                   	push   %edx
c0104211:	50                   	push   %eax
c0104212:	e8 ae f3 ff ff       	call   c01035c5 <env_sleep>
c0104217:	83 c4 10             	add    $0x10,%esp
c010421a:	e9 11 02 00 00       	jmp    c0104430 <do_syscall+0x2ce>
c010421f:	a1 44 57 11 c0       	mov    0xc0115744,%eax
c0104224:	83 ec 0c             	sub    $0xc,%esp
c0104227:	50                   	push   %eax
c0104228:	e8 e0 f3 ff ff       	call   c010360d <env_exit>
c010422d:	83 c4 10             	add    $0x10,%esp
c0104230:	e9 fb 01 00 00       	jmp    c0104430 <do_syscall+0x2ce>
c0104235:	8b 45 08             	mov    0x8(%ebp),%eax
c0104238:	8b 40 14             	mov    0x14(%eax),%eax
c010423b:	0f be c0             	movsbl %al,%eax
c010423e:	8b 55 08             	mov    0x8(%ebp),%edx
c0104241:	8b 52 18             	mov    0x18(%edx),%edx
c0104244:	89 d1                	mov    %edx,%ecx
c0104246:	8b 55 08             	mov    0x8(%ebp),%edx
c0104249:	8b 52 10             	mov    0x10(%edx),%edx
c010424c:	83 ec 04             	sub    $0x4,%esp
c010424f:	50                   	push   %eax
c0104250:	51                   	push   %ecx
c0104251:	52                   	push   %edx
c0104252:	e8 58 f7 ff ff       	call   c01039af <sem_open>
c0104257:	83 c4 10             	add    $0x10,%esp
c010425a:	89 c2                	mov    %eax,%edx
c010425c:	8b 45 08             	mov    0x8(%ebp),%eax
c010425f:	89 50 1c             	mov    %edx,0x1c(%eax)
c0104262:	e9 c9 01 00 00       	jmp    c0104430 <do_syscall+0x2ce>
c0104267:	8b 45 08             	mov    0x8(%ebp),%eax
c010426a:	8b 40 10             	mov    0x10(%eax),%eax
c010426d:	83 ec 0c             	sub    $0xc,%esp
c0104270:	50                   	push   %eax
c0104271:	e8 28 f8 ff ff       	call   c0103a9e <sem_close>
c0104276:	83 c4 10             	add    $0x10,%esp
c0104279:	89 c2                	mov    %eax,%edx
c010427b:	8b 45 08             	mov    0x8(%ebp),%eax
c010427e:	89 50 1c             	mov    %edx,0x1c(%eax)
c0104281:	e9 aa 01 00 00       	jmp    c0104430 <do_syscall+0x2ce>
c0104286:	8b 45 08             	mov    0x8(%ebp),%eax
c0104289:	8b 40 10             	mov    0x10(%eax),%eax
c010428c:	83 ec 0c             	sub    $0xc,%esp
c010428f:	50                   	push   %eax
c0104290:	e8 6d f8 ff ff       	call   c0103b02 <sem_wait>
c0104295:	83 c4 10             	add    $0x10,%esp
c0104298:	89 c2                	mov    %eax,%edx
c010429a:	8b 45 08             	mov    0x8(%ebp),%eax
c010429d:	89 50 1c             	mov    %edx,0x1c(%eax)
c01042a0:	e9 8b 01 00 00       	jmp    c0104430 <do_syscall+0x2ce>
c01042a5:	8b 45 08             	mov    0x8(%ebp),%eax
c01042a8:	8b 40 10             	mov    0x10(%eax),%eax
c01042ab:	83 ec 0c             	sub    $0xc,%esp
c01042ae:	50                   	push   %eax
c01042af:	e8 d8 f8 ff ff       	call   c0103b8c <sem_post>
c01042b4:	83 c4 10             	add    $0x10,%esp
c01042b7:	89 c2                	mov    %eax,%edx
c01042b9:	8b 45 08             	mov    0x8(%ebp),%eax
c01042bc:	89 50 1c             	mov    %edx,0x1c(%eax)
c01042bf:	e9 6c 01 00 00       	jmp    c0104430 <do_syscall+0x2ce>
c01042c4:	8b 45 08             	mov    0x8(%ebp),%eax
c01042c7:	8b 40 10             	mov    0x10(%eax),%eax
c01042ca:	83 ec 0c             	sub    $0xc,%esp
c01042cd:	50                   	push   %eax
c01042ce:	e8 48 f5 ff ff       	call   c010381b <fork2>
c01042d3:	83 c4 10             	add    $0x10,%esp
c01042d6:	e9 55 01 00 00       	jmp    c0104430 <do_syscall+0x2ce>
c01042db:	e8 40 f6 ff ff       	call   c0103920 <thread_exit>
c01042e0:	e9 4b 01 00 00       	jmp    c0104430 <do_syscall+0x2ce>
c01042e5:	8b 45 08             	mov    0x8(%ebp),%eax
c01042e8:	8b 40 10             	mov    0x10(%eax),%eax
c01042eb:	83 ec 0c             	sub    $0xc,%esp
c01042ee:	50                   	push   %eax
c01042ef:	e8 66 19 00 00       	call   c0105c5a <fs_open>
c01042f4:	83 c4 10             	add    $0x10,%esp
c01042f7:	89 c2                	mov    %eax,%edx
c01042f9:	8b 45 08             	mov    0x8(%ebp),%eax
c01042fc:	89 50 1c             	mov    %edx,0x1c(%eax)
c01042ff:	e9 2c 01 00 00       	jmp    c0104430 <do_syscall+0x2ce>
c0104304:	8b 45 08             	mov    0x8(%ebp),%eax
c0104307:	8b 40 14             	mov    0x14(%eax),%eax
c010430a:	89 c1                	mov    %eax,%ecx
c010430c:	8b 45 08             	mov    0x8(%ebp),%eax
c010430f:	8b 40 18             	mov    0x18(%eax),%eax
c0104312:	89 c2                	mov    %eax,%edx
c0104314:	8b 45 08             	mov    0x8(%ebp),%eax
c0104317:	8b 40 10             	mov    0x10(%eax),%eax
c010431a:	83 ec 04             	sub    $0x4,%esp
c010431d:	51                   	push   %ecx
c010431e:	52                   	push   %edx
c010431f:	50                   	push   %eax
c0104320:	e8 15 1c 00 00       	call   c0105f3a <fs_read>
c0104325:	83 c4 10             	add    $0x10,%esp
c0104328:	89 c2                	mov    %eax,%edx
c010432a:	8b 45 08             	mov    0x8(%ebp),%eax
c010432d:	89 50 1c             	mov    %edx,0x1c(%eax)
c0104330:	e9 fb 00 00 00       	jmp    c0104430 <do_syscall+0x2ce>
c0104335:	8b 45 08             	mov    0x8(%ebp),%eax
c0104338:	8b 40 14             	mov    0x14(%eax),%eax
c010433b:	89 c1                	mov    %eax,%ecx
c010433d:	8b 45 08             	mov    0x8(%ebp),%eax
c0104340:	8b 40 18             	mov    0x18(%eax),%eax
c0104343:	89 c2                	mov    %eax,%edx
c0104345:	8b 45 08             	mov    0x8(%ebp),%eax
c0104348:	8b 40 10             	mov    0x10(%eax),%eax
c010434b:	83 ec 04             	sub    $0x4,%esp
c010434e:	51                   	push   %ecx
c010434f:	52                   	push   %edx
c0104350:	50                   	push   %eax
c0104351:	e8 8a 1f 00 00       	call   c01062e0 <fs_write>
c0104356:	83 c4 10             	add    $0x10,%esp
c0104359:	89 c2                	mov    %eax,%edx
c010435b:	8b 45 08             	mov    0x8(%ebp),%eax
c010435e:	89 50 1c             	mov    %edx,0x1c(%eax)
c0104361:	e9 ca 00 00 00       	jmp    c0104430 <do_syscall+0x2ce>
c0104366:	8b 45 08             	mov    0x8(%ebp),%eax
c0104369:	8b 40 10             	mov    0x10(%eax),%eax
c010436c:	83 ec 0c             	sub    $0xc,%esp
c010436f:	50                   	push   %eax
c0104370:	e8 4d 23 00 00       	call   c01066c2 <fs_close>
c0104375:	83 c4 10             	add    $0x10,%esp
c0104378:	89 c2                	mov    %eax,%edx
c010437a:	8b 45 08             	mov    0x8(%ebp),%eax
c010437d:	89 50 1c             	mov    %edx,0x1c(%eax)
c0104380:	e9 ab 00 00 00       	jmp    c0104430 <do_syscall+0x2ce>
c0104385:	8b 45 08             	mov    0x8(%ebp),%eax
c0104388:	8b 40 14             	mov    0x14(%eax),%eax
c010438b:	89 c1                	mov    %eax,%ecx
c010438d:	8b 45 08             	mov    0x8(%ebp),%eax
c0104390:	8b 40 18             	mov    0x18(%eax),%eax
c0104393:	89 c2                	mov    %eax,%edx
c0104395:	8b 45 08             	mov    0x8(%ebp),%eax
c0104398:	8b 40 10             	mov    0x10(%eax),%eax
c010439b:	83 ec 04             	sub    $0x4,%esp
c010439e:	51                   	push   %ecx
c010439f:	52                   	push   %edx
c01043a0:	50                   	push   %eax
c01043a1:	e8 67 23 00 00       	call   c010670d <fs_lseek>
c01043a6:	83 c4 10             	add    $0x10,%esp
c01043a9:	89 c2                	mov    %eax,%edx
c01043ab:	8b 45 08             	mov    0x8(%ebp),%eax
c01043ae:	89 50 1c             	mov    %edx,0x1c(%eax)
c01043b1:	eb 7d                	jmp    c0104430 <do_syscall+0x2ce>
c01043b3:	e8 c5 db ff ff       	call   c0101f7d <getchar>
c01043b8:	89 c2                	mov    %eax,%edx
c01043ba:	8b 45 08             	mov    0x8(%ebp),%eax
c01043bd:	89 50 1c             	mov    %edx,0x1c(%eax)
c01043c0:	eb 6e                	jmp    c0104430 <do_syscall+0x2ce>
c01043c2:	8b 45 08             	mov    0x8(%ebp),%eax
c01043c5:	8b 40 18             	mov    0x18(%eax),%eax
c01043c8:	89 c2                	mov    %eax,%edx
c01043ca:	8b 45 08             	mov    0x8(%ebp),%eax
c01043cd:	8b 40 10             	mov    0x10(%eax),%eax
c01043d0:	83 ec 08             	sub    $0x8,%esp
c01043d3:	52                   	push   %edx
c01043d4:	50                   	push   %eax
c01043d5:	e8 8c ca ff ff       	call   c0100e66 <runcmd>
c01043da:	83 c4 10             	add    $0x10,%esp
c01043dd:	89 c2                	mov    %eax,%edx
c01043df:	8b 45 08             	mov    0x8(%ebp),%eax
c01043e2:	89 50 1c             	mov    %edx,0x1c(%eax)
c01043e5:	eb 49                	jmp    c0104430 <do_syscall+0x2ce>
c01043e7:	e8 d1 cb ff ff       	call   c0100fbd <mo_read>
c01043ec:	eb 42                	jmp    c0104430 <do_syscall+0x2ce>
c01043ee:	8b 45 08             	mov    0x8(%ebp),%eax
c01043f1:	8b 40 10             	mov    0x10(%eax),%eax
c01043f4:	83 ec 0c             	sub    $0xc,%esp
c01043f7:	50                   	push   %eax
c01043f8:	e8 6a db ff ff       	call   c0101f67 <cputchar>
c01043fd:	83 c4 10             	add    $0x10,%esp
c0104400:	eb 2e                	jmp    c0104430 <do_syscall+0x2ce>
c0104402:	e8 e7 cb ff ff       	call   c0100fee <mo_run>
c0104407:	eb 27                	jmp    c0104430 <do_syscall+0x2ce>
c0104409:	83 ec 0c             	sub    $0xc,%esp
c010440c:	6a 00                	push   $0x0
c010440e:	e8 e8 cb ff ff       	call   c0100ffb <monitor>
c0104413:	83 c4 10             	add    $0x10,%esp
c0104416:	eb f1                	jmp    c0104409 <do_syscall+0x2a7>
c0104418:	83 ec 08             	sub    $0x8,%esp
c010441b:	68 86 00 00 00       	push   $0x86
c0104420:	68 78 71 10 c0       	push   $0xc0107178
c0104425:	e8 42 e6 ff ff       	call   c0102a6c <abort>
c010442a:	83 c4 10             	add    $0x10,%esp
c010442d:	eb 01                	jmp    c0104430 <do_syscall+0x2ce>
c010442f:	90                   	nop
c0104430:	c9                   	leave  
c0104431:	c3                   	ret    

c0104432 <_paddr>:
c0104432:	55                   	push   %ebp
c0104433:	89 e5                	mov    %esp,%ebp
c0104435:	83 ec 08             	sub    $0x8,%esp
c0104438:	8b 45 10             	mov    0x10(%ebp),%eax
c010443b:	3d ff ff ff bf       	cmp    $0xbfffffff,%eax
c0104440:	77 16                	ja     c0104458 <_paddr+0x26>
c0104442:	ff 75 10             	pushl  0x10(%ebp)
c0104445:	68 08 72 10 c0       	push   $0xc0107208
c010444a:	ff 75 0c             	pushl  0xc(%ebp)
c010444d:	ff 75 08             	pushl  0x8(%ebp)
c0104450:	e8 32 e5 ff ff       	call   c0102987 <printk>
c0104455:	83 c4 10             	add    $0x10,%esp
c0104458:	8b 45 10             	mov    0x10(%ebp),%eax
c010445b:	05 00 00 00 40       	add    $0x40000000,%eax
c0104460:	c9                   	leave  
c0104461:	c3                   	ret    

c0104462 <_kaddr>:
c0104462:	55                   	push   %ebp
c0104463:	89 e5                	mov    %esp,%ebp
c0104465:	83 ec 08             	sub    $0x8,%esp
c0104468:	8b 45 10             	mov    0x10(%ebp),%eax
c010446b:	c1 e8 0c             	shr    $0xc,%eax
c010446e:	3d ff 7f 00 00       	cmp    $0x7fff,%eax
c0104473:	76 13                	jbe    c0104488 <_kaddr+0x26>
c0104475:	83 ec 08             	sub    $0x8,%esp
c0104478:	ff 75 10             	pushl  0x10(%ebp)
c010447b:	68 2c 72 10 c0       	push   $0xc010722c
c0104480:	e8 02 e5 ff ff       	call   c0102987 <printk>
c0104485:	83 c4 10             	add    $0x10,%esp
c0104488:	8b 45 10             	mov    0x10(%ebp),%eax
c010448b:	2d 00 00 00 40       	sub    $0x40000000,%eax
c0104490:	c9                   	leave  
c0104491:	c3                   	ret    

c0104492 <page2pa>:
c0104492:	55                   	push   %ebp
c0104493:	89 e5                	mov    %esp,%ebp
c0104495:	8b 45 08             	mov    0x8(%ebp),%eax
c0104498:	8b 15 64 7b 16 c0    	mov    0xc0167b64,%edx
c010449e:	29 d0                	sub    %edx,%eax
c01044a0:	c1 f8 03             	sar    $0x3,%eax
c01044a3:	c1 e0 0c             	shl    $0xc,%eax
c01044a6:	5d                   	pop    %ebp
c01044a7:	c3                   	ret    

c01044a8 <pa2page>:
c01044a8:	55                   	push   %ebp
c01044a9:	89 e5                	mov    %esp,%ebp
c01044ab:	83 ec 08             	sub    $0x8,%esp
c01044ae:	8b 45 08             	mov    0x8(%ebp),%eax
c01044b1:	c1 e8 0c             	shr    $0xc,%eax
c01044b4:	3d ff 7f 00 00       	cmp    $0x7fff,%eax
c01044b9:	76 10                	jbe    c01044cb <pa2page+0x23>
c01044bb:	83 ec 0c             	sub    $0xc,%esp
c01044be:	68 50 72 10 c0       	push   $0xc0107250
c01044c3:	e8 bf e4 ff ff       	call   c0102987 <printk>
c01044c8:	83 c4 10             	add    $0x10,%esp
c01044cb:	a1 64 7b 16 c0       	mov    0xc0167b64,%eax
c01044d0:	8b 55 08             	mov    0x8(%ebp),%edx
c01044d3:	c1 ea 0c             	shr    $0xc,%edx
c01044d6:	c1 e2 03             	shl    $0x3,%edx
c01044d9:	01 d0                	add    %edx,%eax
c01044db:	c9                   	leave  
c01044dc:	c3                   	ret    

c01044dd <page2kva>:
c01044dd:	55                   	push   %ebp
c01044de:	89 e5                	mov    %esp,%ebp
c01044e0:	83 ec 08             	sub    $0x8,%esp
c01044e3:	ff 75 08             	pushl  0x8(%ebp)
c01044e6:	e8 a7 ff ff ff       	call   c0104492 <page2pa>
c01044eb:	83 c4 04             	add    $0x4,%esp
c01044ee:	83 ec 04             	sub    $0x4,%esp
c01044f1:	50                   	push   %eax
c01044f2:	6a 50                	push   $0x50
c01044f4:	68 6f 72 10 c0       	push   $0xc010726f
c01044f9:	e8 64 ff ff ff       	call   c0104462 <_kaddr>
c01044fe:	83 c4 10             	add    $0x10,%esp
c0104501:	c9                   	leave  
c0104502:	c3                   	ret    

c0104503 <boot_alloc>:
c0104503:	55                   	push   %ebp
c0104504:	89 e5                	mov    %esp,%ebp
c0104506:	83 ec 20             	sub    $0x20,%esp
c0104509:	a1 f0 57 11 c0       	mov    0xc01157f0,%eax
c010450e:	85 c0                	test   %eax,%eax
c0104510:	75 2c                	jne    c010453e <boot_alloc+0x3b>
c0104512:	c7 45 fc 00 10 00 00 	movl   $0x1000,-0x4(%ebp)
c0104519:	b8 80 83 16 c0       	mov    $0xc0168380,%eax
c010451e:	8d 50 ff             	lea    -0x1(%eax),%edx
c0104521:	8b 45 fc             	mov    -0x4(%ebp),%eax
c0104524:	01 d0                	add    %edx,%eax
c0104526:	89 45 f8             	mov    %eax,-0x8(%ebp)
c0104529:	8b 45 f8             	mov    -0x8(%ebp),%eax
c010452c:	ba 00 00 00 00       	mov    $0x0,%edx
c0104531:	f7 75 fc             	divl   -0x4(%ebp)
c0104534:	8b 45 f8             	mov    -0x8(%ebp),%eax
c0104537:	29 d0                	sub    %edx,%eax
c0104539:	a3 f0 57 11 c0       	mov    %eax,0xc01157f0
c010453e:	a1 f0 57 11 c0       	mov    0xc01157f0,%eax
c0104543:	89 45 f4             	mov    %eax,-0xc(%ebp)
c0104546:	c7 45 f0 00 10 00 00 	movl   $0x1000,-0x10(%ebp)
c010454d:	8b 55 08             	mov    0x8(%ebp),%edx
c0104550:	8b 45 f0             	mov    -0x10(%ebp),%eax
c0104553:	01 d0                	add    %edx,%eax
c0104555:	83 e8 01             	sub    $0x1,%eax
c0104558:	89 45 ec             	mov    %eax,-0x14(%ebp)
c010455b:	8b 45 ec             	mov    -0x14(%ebp),%eax
c010455e:	ba 00 00 00 00       	mov    $0x0,%edx
c0104563:	f7 75 f0             	divl   -0x10(%ebp)
c0104566:	8b 45 ec             	mov    -0x14(%ebp),%eax
c0104569:	29 d0                	sub    %edx,%eax
c010456b:	c1 e8 0c             	shr    $0xc,%eax
c010456e:	c1 e0 0c             	shl    $0xc,%eax
c0104571:	89 c2                	mov    %eax,%edx
c0104573:	a1 f0 57 11 c0       	mov    0xc01157f0,%eax
c0104578:	01 d0                	add    %edx,%eax
c010457a:	a3 f0 57 11 c0       	mov    %eax,0xc01157f0
c010457f:	8b 45 f4             	mov    -0xc(%ebp),%eax
c0104582:	c9                   	leave  
c0104583:	c3                   	ret    

c0104584 <mem_init>:
c0104584:	55                   	push   %ebp
c0104585:	89 e5                	mov    %esp,%ebp
c0104587:	83 ec 28             	sub    $0x28,%esp
c010458a:	68 00 10 00 00       	push   $0x1000
c010458f:	e8 6f ff ff ff       	call   c0104503 <boot_alloc>
c0104594:	83 c4 04             	add    $0x4,%esp
c0104597:	a3 60 7b 16 c0       	mov    %eax,0xc0167b60
c010459c:	a1 60 7b 16 c0       	mov    0xc0167b60,%eax
c01045a1:	83 ec 04             	sub    $0x4,%esp
c01045a4:	68 00 10 00 00       	push   $0x1000
c01045a9:	6a 00                	push   $0x0
c01045ab:	50                   	push   %eax
c01045ac:	e8 6b df ff ff       	call   c010251c <memset>
c01045b1:	83 c4 10             	add    $0x10,%esp
c01045b4:	83 ec 0c             	sub    $0xc,%esp
c01045b7:	68 00 00 04 00       	push   $0x40000
c01045bc:	e8 42 ff ff ff       	call   c0104503 <boot_alloc>
c01045c1:	83 c4 10             	add    $0x10,%esp
c01045c4:	a3 64 7b 16 c0       	mov    %eax,0xc0167b64
c01045c9:	c7 45 f4 00 1e 00 00 	movl   $0x1e00,-0xc(%ebp)
c01045d0:	83 ec 0c             	sub    $0xc,%esp
c01045d3:	ff 75 f4             	pushl  -0xc(%ebp)
c01045d6:	e8 28 ff ff ff       	call   c0104503 <boot_alloc>
c01045db:	83 c4 10             	add    $0x10,%esp
c01045de:	a3 40 57 11 c0       	mov    %eax,0xc0115740
c01045e3:	a1 40 57 11 c0       	mov    0xc0115740,%eax
c01045e8:	83 ec 04             	sub    $0x4,%esp
c01045eb:	ff 75 f4             	pushl  -0xc(%ebp)
c01045ee:	6a 00                	push   $0x0
c01045f0:	50                   	push   %eax
c01045f1:	e8 26 df ff ff       	call   c010251c <memset>
c01045f6:	83 c4 10             	add    $0x10,%esp
c01045f9:	e8 b4 00 00 00       	call   c01046b2 <page_init>
c01045fe:	a1 60 7b 16 c0       	mov    0xc0167b60,%eax
c0104603:	83 ec 0c             	sub    $0xc,%esp
c0104606:	6a 06                	push   $0x6
c0104608:	6a 00                	push   $0x0
c010460a:	68 00 00 00 08       	push   $0x8000000
c010460f:	68 00 00 00 c0       	push   $0xc0000000
c0104614:	50                   	push   %eax
c0104615:	e8 a8 02 00 00       	call   c01048c2 <boot_map_region>
c010461a:	83 c4 20             	add    $0x20,%esp
c010461d:	a1 60 7b 16 c0       	mov    0xc0167b60,%eax
c0104622:	83 ec 0c             	sub    $0xc,%esp
c0104625:	6a 06                	push   $0x6
c0104627:	6a 00                	push   $0x0
c0104629:	68 00 00 f0 00       	push   $0xf00000
c010462e:	6a 00                	push   $0x0
c0104630:	50                   	push   %eax
c0104631:	e8 8c 02 00 00       	call   c01048c2 <boot_map_region>
c0104636:	83 c4 20             	add    $0x20,%esp
c0104639:	a1 60 7b 16 c0       	mov    0xc0167b60,%eax
c010463e:	83 ec 04             	sub    $0x4,%esp
c0104641:	50                   	push   %eax
c0104642:	6a 3f                	push   $0x3f
c0104644:	68 80 72 10 c0       	push   $0xc0107280
c0104649:	e8 e4 fd ff ff       	call   c0104432 <_paddr>
c010464e:	83 c4 10             	add    $0x10,%esp
c0104651:	89 c2                	mov    %eax,%edx
c0104653:	a1 60 7b 16 c0       	mov    0xc0167b60,%eax
c0104658:	68 00 b0 10 c0       	push   $0xc010b000
c010465d:	52                   	push   %edx
c010465e:	50                   	push   %eax
c010465f:	68 99 72 10 c0       	push   $0xc0107299
c0104664:	e8 1e e3 ff ff       	call   c0102987 <printk>
c0104669:	83 c4 10             	add    $0x10,%esp
c010466c:	a1 60 7b 16 c0       	mov    0xc0167b60,%eax
c0104671:	83 ec 04             	sub    $0x4,%esp
c0104674:	50                   	push   %eax
c0104675:	6a 40                	push   $0x40
c0104677:	68 80 72 10 c0       	push   $0xc0107280
c010467c:	e8 b1 fd ff ff       	call   c0104432 <_paddr>
c0104681:	83 c4 10             	add    $0x10,%esp
c0104684:	89 45 ec             	mov    %eax,-0x14(%ebp)
c0104687:	8b 45 ec             	mov    -0x14(%ebp),%eax
c010468a:	0f 22 d8             	mov    %eax,%cr3
c010468d:	0f 20 c0             	mov    %cr0,%eax
c0104690:	89 45 e8             	mov    %eax,-0x18(%ebp)
c0104693:	8b 45 e8             	mov    -0x18(%ebp),%eax
c0104696:	89 45 f0             	mov    %eax,-0x10(%ebp)
c0104699:	81 4d f0 23 00 05 80 	orl    $0x80050023,-0x10(%ebp)
c01046a0:	83 65 f0 f3          	andl   $0xfffffff3,-0x10(%ebp)
c01046a4:	8b 45 f0             	mov    -0x10(%ebp),%eax
c01046a7:	89 45 e4             	mov    %eax,-0x1c(%ebp)
c01046aa:	8b 45 e4             	mov    -0x1c(%ebp),%eax
c01046ad:	0f 22 c0             	mov    %eax,%cr0
c01046b0:	c9                   	leave  
c01046b1:	c3                   	ret    

c01046b2 <page_init>:
c01046b2:	55                   	push   %ebp
c01046b3:	89 e5                	mov    %esp,%ebp
c01046b5:	83 ec 10             	sub    $0x10,%esp
c01046b8:	c7 45 fc ff 7f 00 00 	movl   $0x7fff,-0x4(%ebp)
c01046bf:	eb 3d                	jmp    c01046fe <page_init+0x4c>
c01046c1:	a1 64 7b 16 c0       	mov    0xc0167b64,%eax
c01046c6:	8b 55 fc             	mov    -0x4(%ebp),%edx
c01046c9:	c1 e2 03             	shl    $0x3,%edx
c01046cc:	01 d0                	add    %edx,%eax
c01046ce:	66 c7 40 04 00 00    	movw   $0x0,0x4(%eax)
c01046d4:	a1 64 7b 16 c0       	mov    0xc0167b64,%eax
c01046d9:	8b 55 fc             	mov    -0x4(%ebp),%edx
c01046dc:	c1 e2 03             	shl    $0x3,%edx
c01046df:	01 c2                	add    %eax,%edx
c01046e1:	a1 ec 57 11 c0       	mov    0xc01157ec,%eax
c01046e6:	89 02                	mov    %eax,(%edx)
c01046e8:	a1 64 7b 16 c0       	mov    0xc0167b64,%eax
c01046ed:	8b 55 fc             	mov    -0x4(%ebp),%edx
c01046f0:	c1 e2 03             	shl    $0x3,%edx
c01046f3:	01 d0                	add    %edx,%eax
c01046f5:	a3 ec 57 11 c0       	mov    %eax,0xc01157ec
c01046fa:	83 6d fc 01          	subl   $0x1,-0x4(%ebp)
c01046fe:	81 7d fc c8 01 00 00 	cmpl   $0x1c8,-0x4(%ebp)
c0104705:	77 ba                	ja     c01046c1 <page_init+0xf>
c0104707:	a1 ec 57 11 c0       	mov    0xc01157ec,%eax
c010470c:	89 45 f8             	mov    %eax,-0x8(%ebp)
c010470f:	c7 45 fc 00 00 00 00 	movl   $0x0,-0x4(%ebp)
c0104716:	eb 0c                	jmp    c0104724 <page_init+0x72>
c0104718:	8b 45 f8             	mov    -0x8(%ebp),%eax
c010471b:	8b 00                	mov    (%eax),%eax
c010471d:	89 45 f8             	mov    %eax,-0x8(%ebp)
c0104720:	83 45 fc 01          	addl   $0x1,-0x4(%ebp)
c0104724:	83 7d fc 09          	cmpl   $0x9,-0x4(%ebp)
c0104728:	76 ee                	jbe    c0104718 <page_init+0x66>
c010472a:	c9                   	leave  
c010472b:	c3                   	ret    

c010472c <page_alloc>:
c010472c:	55                   	push   %ebp
c010472d:	89 e5                	mov    %esp,%ebp
c010472f:	83 ec 18             	sub    $0x18,%esp
c0104732:	a1 ec 57 11 c0       	mov    0xc01157ec,%eax
c0104737:	85 c0                	test   %eax,%eax
c0104739:	75 07                	jne    c0104742 <page_alloc+0x16>
c010473b:	b8 00 00 00 00       	mov    $0x0,%eax
c0104740:	eb 42                	jmp    c0104784 <page_alloc+0x58>
c0104742:	a1 ec 57 11 c0       	mov    0xc01157ec,%eax
c0104747:	89 45 f4             	mov    %eax,-0xc(%ebp)
c010474a:	a1 ec 57 11 c0       	mov    0xc01157ec,%eax
c010474f:	8b 00                	mov    (%eax),%eax
c0104751:	a3 ec 57 11 c0       	mov    %eax,0xc01157ec
c0104756:	8b 45 08             	mov    0x8(%ebp),%eax
c0104759:	83 e0 01             	and    $0x1,%eax
c010475c:	85 c0                	test   %eax,%eax
c010475e:	74 21                	je     c0104781 <page_alloc+0x55>
c0104760:	83 ec 0c             	sub    $0xc,%esp
c0104763:	ff 75 f4             	pushl  -0xc(%ebp)
c0104766:	e8 72 fd ff ff       	call   c01044dd <page2kva>
c010476b:	83 c4 10             	add    $0x10,%esp
c010476e:	83 ec 04             	sub    $0x4,%esp
c0104771:	68 00 10 00 00       	push   $0x1000
c0104776:	6a 00                	push   $0x0
c0104778:	50                   	push   %eax
c0104779:	e8 9e dd ff ff       	call   c010251c <memset>
c010477e:	83 c4 10             	add    $0x10,%esp
c0104781:	8b 45 f4             	mov    -0xc(%ebp),%eax
c0104784:	c9                   	leave  
c0104785:	c3                   	ret    

c0104786 <page_free>:
c0104786:	55                   	push   %ebp
c0104787:	89 e5                	mov    %esp,%ebp
c0104789:	8b 15 ec 57 11 c0    	mov    0xc01157ec,%edx
c010478f:	8b 45 08             	mov    0x8(%ebp),%eax
c0104792:	89 10                	mov    %edx,(%eax)
c0104794:	8b 45 08             	mov    0x8(%ebp),%eax
c0104797:	a3 ec 57 11 c0       	mov    %eax,0xc01157ec
c010479c:	5d                   	pop    %ebp
c010479d:	c3                   	ret    

c010479e <page_decref>:
c010479e:	55                   	push   %ebp
c010479f:	89 e5                	mov    %esp,%ebp
c01047a1:	8b 45 08             	mov    0x8(%ebp),%eax
c01047a4:	0f b7 40 04          	movzwl 0x4(%eax),%eax
c01047a8:	8d 50 ff             	lea    -0x1(%eax),%edx
c01047ab:	8b 45 08             	mov    0x8(%ebp),%eax
c01047ae:	66 89 50 04          	mov    %dx,0x4(%eax)
c01047b2:	8b 45 08             	mov    0x8(%ebp),%eax
c01047b5:	0f b7 40 04          	movzwl 0x4(%eax),%eax
c01047b9:	66 85 c0             	test   %ax,%ax
c01047bc:	75 0b                	jne    c01047c9 <page_decref+0x2b>
c01047be:	ff 75 08             	pushl  0x8(%ebp)
c01047c1:	e8 c0 ff ff ff       	call   c0104786 <page_free>
c01047c6:	83 c4 04             	add    $0x4,%esp
c01047c9:	c9                   	leave  
c01047ca:	c3                   	ret    

c01047cb <pgdir_walk>:
c01047cb:	55                   	push   %ebp
c01047cc:	89 e5                	mov    %esp,%ebp
c01047ce:	53                   	push   %ebx
c01047cf:	83 ec 14             	sub    $0x14,%esp
c01047d2:	c7 45 f4 00 00 00 00 	movl   $0x0,-0xc(%ebp)
c01047d9:	8b 45 0c             	mov    0xc(%ebp),%eax
c01047dc:	c1 e8 16             	shr    $0x16,%eax
c01047df:	8d 14 85 00 00 00 00 	lea    0x0(,%eax,4),%edx
c01047e6:	8b 45 08             	mov    0x8(%ebp),%eax
c01047e9:	01 d0                	add    %edx,%eax
c01047eb:	8b 00                	mov    (%eax),%eax
c01047ed:	85 c0                	test   %eax,%eax
c01047ef:	75 7a                	jne    c010486b <pgdir_walk+0xa0>
c01047f1:	83 7d 10 00          	cmpl   $0x0,0x10(%ebp)
c01047f5:	75 0a                	jne    c0104801 <pgdir_walk+0x36>
c01047f7:	b8 00 00 00 00       	mov    $0x0,%eax
c01047fc:	e9 bc 00 00 00       	jmp    c01048bd <pgdir_walk+0xf2>
c0104801:	83 ec 0c             	sub    $0xc,%esp
c0104804:	6a 01                	push   $0x1
c0104806:	e8 21 ff ff ff       	call   c010472c <page_alloc>
c010480b:	83 c4 10             	add    $0x10,%esp
c010480e:	89 45 f0             	mov    %eax,-0x10(%ebp)
c0104811:	83 7d f0 00          	cmpl   $0x0,-0x10(%ebp)
c0104815:	75 0a                	jne    c0104821 <pgdir_walk+0x56>
c0104817:	b8 00 00 00 00       	mov    $0x0,%eax
c010481c:	e9 9c 00 00 00       	jmp    c01048bd <pgdir_walk+0xf2>
c0104821:	8b 45 f0             	mov    -0x10(%ebp),%eax
c0104824:	0f b7 40 04          	movzwl 0x4(%eax),%eax
c0104828:	8d 50 01             	lea    0x1(%eax),%edx
c010482b:	8b 45 f0             	mov    -0x10(%ebp),%eax
c010482e:	66 89 50 04          	mov    %dx,0x4(%eax)
c0104832:	8b 45 0c             	mov    0xc(%ebp),%eax
c0104835:	c1 e8 16             	shr    $0x16,%eax
c0104838:	8d 14 85 00 00 00 00 	lea    0x0(,%eax,4),%edx
c010483f:	8b 45 08             	mov    0x8(%ebp),%eax
c0104842:	8d 1c 02             	lea    (%edx,%eax,1),%ebx
c0104845:	83 ec 0c             	sub    $0xc,%esp
c0104848:	ff 75 f0             	pushl  -0x10(%ebp)
c010484b:	e8 42 fc ff ff       	call   c0104492 <page2pa>
c0104850:	83 c4 10             	add    $0x10,%esp
c0104853:	83 c8 07             	or     $0x7,%eax
c0104856:	89 03                	mov    %eax,(%ebx)
c0104858:	83 ec 0c             	sub    $0xc,%esp
c010485b:	ff 75 f0             	pushl  -0x10(%ebp)
c010485e:	e8 7a fc ff ff       	call   c01044dd <page2kva>
c0104863:	83 c4 10             	add    $0x10,%esp
c0104866:	89 45 f4             	mov    %eax,-0xc(%ebp)
c0104869:	eb 3b                	jmp    c01048a6 <pgdir_walk+0xdb>
c010486b:	8b 45 0c             	mov    0xc(%ebp),%eax
c010486e:	c1 e8 16             	shr    $0x16,%eax
c0104871:	8d 14 85 00 00 00 00 	lea    0x0(,%eax,4),%edx
c0104878:	8b 45 08             	mov    0x8(%ebp),%eax
c010487b:	01 d0                	add    %edx,%eax
c010487d:	8b 00                	mov    (%eax),%eax
c010487f:	89 45 ec             	mov    %eax,-0x14(%ebp)
c0104882:	81 65 ec 00 f0 ff ff 	andl   $0xfffff000,-0x14(%ebp)
c0104889:	83 ec 0c             	sub    $0xc,%esp
c010488c:	ff 75 ec             	pushl  -0x14(%ebp)
c010488f:	e8 14 fc ff ff       	call   c01044a8 <pa2page>
c0104894:	83 c4 10             	add    $0x10,%esp
c0104897:	83 ec 0c             	sub    $0xc,%esp
c010489a:	50                   	push   %eax
c010489b:	e8 3d fc ff ff       	call   c01044dd <page2kva>
c01048a0:	83 c4 10             	add    $0x10,%esp
c01048a3:	89 45 f4             	mov    %eax,-0xc(%ebp)
c01048a6:	8b 45 0c             	mov    0xc(%ebp),%eax
c01048a9:	c1 e8 0c             	shr    $0xc,%eax
c01048ac:	25 ff 03 00 00       	and    $0x3ff,%eax
c01048b1:	8d 14 85 00 00 00 00 	lea    0x0(,%eax,4),%edx
c01048b8:	8b 45 f4             	mov    -0xc(%ebp),%eax
c01048bb:	01 d0                	add    %edx,%eax
c01048bd:	8b 5d fc             	mov    -0x4(%ebp),%ebx
c01048c0:	c9                   	leave  
c01048c1:	c3                   	ret    

c01048c2 <boot_map_region>:
c01048c2:	55                   	push   %ebp
c01048c3:	89 e5                	mov    %esp,%ebp
c01048c5:	83 ec 18             	sub    $0x18,%esp
c01048c8:	c7 45 f0 00 00 00 00 	movl   $0x0,-0x10(%ebp)
c01048cf:	c7 45 f4 00 00 00 00 	movl   $0x0,-0xc(%ebp)
c01048d6:	eb 48                	jmp    c0104920 <boot_map_region+0x5e>
c01048d8:	8b 45 f4             	mov    -0xc(%ebp),%eax
c01048db:	c1 e0 0c             	shl    $0xc,%eax
c01048de:	89 c2                	mov    %eax,%edx
c01048e0:	8b 45 0c             	mov    0xc(%ebp),%eax
c01048e3:	01 d0                	add    %edx,%eax
c01048e5:	83 ec 04             	sub    $0x4,%esp
c01048e8:	6a 01                	push   $0x1
c01048ea:	50                   	push   %eax
c01048eb:	ff 75 08             	pushl  0x8(%ebp)
c01048ee:	e8 d8 fe ff ff       	call   c01047cb <pgdir_walk>
c01048f3:	83 c4 10             	add    $0x10,%esp
c01048f6:	89 45 f0             	mov    %eax,-0x10(%ebp)
c01048f9:	8b 45 f4             	mov    -0xc(%ebp),%eax
c01048fc:	c1 e0 0c             	shl    $0xc,%eax
c01048ff:	89 c2                	mov    %eax,%edx
c0104901:	8b 45 14             	mov    0x14(%ebp),%eax
c0104904:	01 d0                	add    %edx,%eax
c0104906:	25 00 f0 ff ff       	and    $0xfffff000,%eax
c010490b:	89 c2                	mov    %eax,%edx
c010490d:	8b 45 18             	mov    0x18(%ebp),%eax
c0104910:	09 d0                	or     %edx,%eax
c0104912:	83 c8 01             	or     $0x1,%eax
c0104915:	89 c2                	mov    %eax,%edx
c0104917:	8b 45 f0             	mov    -0x10(%ebp),%eax
c010491a:	89 10                	mov    %edx,(%eax)
c010491c:	83 45 f4 01          	addl   $0x1,-0xc(%ebp)
c0104920:	8b 45 f4             	mov    -0xc(%ebp),%eax
c0104923:	8b 55 10             	mov    0x10(%ebp),%edx
c0104926:	c1 ea 0c             	shr    $0xc,%edx
c0104929:	39 d0                	cmp    %edx,%eax
c010492b:	72 ab                	jb     c01048d8 <boot_map_region+0x16>
c010492d:	c9                   	leave  
c010492e:	c3                   	ret    

c010492f <page_insert>:
c010492f:	55                   	push   %ebp
c0104930:	89 e5                	mov    %esp,%ebp
c0104932:	83 ec 18             	sub    $0x18,%esp
c0104935:	83 ec 04             	sub    $0x4,%esp
c0104938:	6a 00                	push   $0x0
c010493a:	ff 75 10             	pushl  0x10(%ebp)
c010493d:	ff 75 08             	pushl  0x8(%ebp)
c0104940:	e8 86 fe ff ff       	call   c01047cb <pgdir_walk>
c0104945:	83 c4 10             	add    $0x10,%esp
c0104948:	89 45 f4             	mov    %eax,-0xc(%ebp)
c010494b:	83 7d f4 00          	cmpl   $0x0,-0xc(%ebp)
c010494f:	74 11                	je     c0104962 <page_insert+0x33>
c0104951:	83 ec 08             	sub    $0x8,%esp
c0104954:	ff 75 10             	pushl  0x10(%ebp)
c0104957:	ff 75 08             	pushl  0x8(%ebp)
c010495a:	e8 cd 00 00 00       	call   c0104a2c <page_remove>
c010495f:	83 c4 10             	add    $0x10,%esp
c0104962:	83 ec 04             	sub    $0x4,%esp
c0104965:	6a 01                	push   $0x1
c0104967:	ff 75 10             	pushl  0x10(%ebp)
c010496a:	ff 75 08             	pushl  0x8(%ebp)
c010496d:	e8 59 fe ff ff       	call   c01047cb <pgdir_walk>
c0104972:	83 c4 10             	add    $0x10,%esp
c0104975:	89 45 f4             	mov    %eax,-0xc(%ebp)
c0104978:	83 7d f4 00          	cmpl   $0x0,-0xc(%ebp)
c010497c:	75 07                	jne    c0104985 <page_insert+0x56>
c010497e:	b8 fc ff ff ff       	mov    $0xfffffffc,%eax
c0104983:	eb 46                	jmp    c01049cb <page_insert+0x9c>
c0104985:	83 ec 0c             	sub    $0xc,%esp
c0104988:	ff 75 0c             	pushl  0xc(%ebp)
c010498b:	e8 02 fb ff ff       	call   c0104492 <page2pa>
c0104990:	83 c4 10             	add    $0x10,%esp
c0104993:	89 c2                	mov    %eax,%edx
c0104995:	8b 45 14             	mov    0x14(%ebp),%eax
c0104998:	09 d0                	or     %edx,%eax
c010499a:	83 c8 01             	or     $0x1,%eax
c010499d:	89 c2                	mov    %eax,%edx
c010499f:	8b 45 f4             	mov    -0xc(%ebp),%eax
c01049a2:	89 10                	mov    %edx,(%eax)
c01049a4:	8b 45 0c             	mov    0xc(%ebp),%eax
c01049a7:	0f b7 40 04          	movzwl 0x4(%eax),%eax
c01049ab:	8d 50 01             	lea    0x1(%eax),%edx
c01049ae:	8b 45 0c             	mov    0xc(%ebp),%eax
c01049b1:	66 89 50 04          	mov    %dx,0x4(%eax)
c01049b5:	83 ec 08             	sub    $0x8,%esp
c01049b8:	ff 75 10             	pushl  0x10(%ebp)
c01049bb:	ff 75 08             	pushl  0x8(%ebp)
c01049be:	e8 be 00 00 00       	call   c0104a81 <tlb_invalidate>
c01049c3:	83 c4 10             	add    $0x10,%esp
c01049c6:	b8 00 00 00 00       	mov    $0x0,%eax
c01049cb:	c9                   	leave  
c01049cc:	c3                   	ret    

c01049cd <page_lookup>:
c01049cd:	55                   	push   %ebp
c01049ce:	89 e5                	mov    %esp,%ebp
c01049d0:	83 ec 18             	sub    $0x18,%esp
c01049d3:	83 ec 04             	sub    $0x4,%esp
c01049d6:	6a 00                	push   $0x0
c01049d8:	ff 75 0c             	pushl  0xc(%ebp)
c01049db:	ff 75 08             	pushl  0x8(%ebp)
c01049de:	e8 e8 fd ff ff       	call   c01047cb <pgdir_walk>
c01049e3:	83 c4 10             	add    $0x10,%esp
c01049e6:	89 45 f4             	mov    %eax,-0xc(%ebp)
c01049e9:	83 7d f4 00          	cmpl   $0x0,-0xc(%ebp)
c01049ed:	75 07                	jne    c01049f6 <page_lookup+0x29>
c01049ef:	b8 00 00 00 00       	mov    $0x0,%eax
c01049f4:	eb 34                	jmp    c0104a2a <page_lookup+0x5d>
c01049f6:	83 7d 10 00          	cmpl   $0x0,0x10(%ebp)
c01049fa:	74 08                	je     c0104a04 <page_lookup+0x37>
c01049fc:	8b 45 10             	mov    0x10(%ebp),%eax
c01049ff:	8b 55 f4             	mov    -0xc(%ebp),%edx
c0104a02:	89 10                	mov    %edx,(%eax)
c0104a04:	8b 45 f4             	mov    -0xc(%ebp),%eax
c0104a07:	8b 00                	mov    (%eax),%eax
c0104a09:	85 c0                	test   %eax,%eax
c0104a0b:	74 18                	je     c0104a25 <page_lookup+0x58>
c0104a0d:	8b 45 f4             	mov    -0xc(%ebp),%eax
c0104a10:	8b 00                	mov    (%eax),%eax
c0104a12:	25 00 f0 ff ff       	and    $0xfffff000,%eax
c0104a17:	83 ec 0c             	sub    $0xc,%esp
c0104a1a:	50                   	push   %eax
c0104a1b:	e8 88 fa ff ff       	call   c01044a8 <pa2page>
c0104a20:	83 c4 10             	add    $0x10,%esp
c0104a23:	eb 05                	jmp    c0104a2a <page_lookup+0x5d>
c0104a25:	b8 00 00 00 00       	mov    $0x0,%eax
c0104a2a:	c9                   	leave  
c0104a2b:	c3                   	ret    

c0104a2c <page_remove>:
c0104a2c:	55                   	push   %ebp
c0104a2d:	89 e5                	mov    %esp,%ebp
c0104a2f:	83 ec 18             	sub    $0x18,%esp
c0104a32:	c7 45 f0 00 00 00 00 	movl   $0x0,-0x10(%ebp)
c0104a39:	83 ec 04             	sub    $0x4,%esp
c0104a3c:	8d 45 f0             	lea    -0x10(%ebp),%eax
c0104a3f:	50                   	push   %eax
c0104a40:	ff 75 0c             	pushl  0xc(%ebp)
c0104a43:	ff 75 08             	pushl  0x8(%ebp)
c0104a46:	e8 82 ff ff ff       	call   c01049cd <page_lookup>
c0104a4b:	83 c4 10             	add    $0x10,%esp
c0104a4e:	89 45 f4             	mov    %eax,-0xc(%ebp)
c0104a51:	83 7d f4 00          	cmpl   $0x0,-0xc(%ebp)
c0104a55:	74 0e                	je     c0104a65 <page_remove+0x39>
c0104a57:	83 ec 0c             	sub    $0xc,%esp
c0104a5a:	ff 75 f4             	pushl  -0xc(%ebp)
c0104a5d:	e8 3c fd ff ff       	call   c010479e <page_decref>
c0104a62:	83 c4 10             	add    $0x10,%esp
c0104a65:	8b 45 f0             	mov    -0x10(%ebp),%eax
c0104a68:	c7 00 00 00 00 00    	movl   $0x0,(%eax)
c0104a6e:	83 ec 08             	sub    $0x8,%esp
c0104a71:	ff 75 0c             	pushl  0xc(%ebp)
c0104a74:	ff 75 08             	pushl  0x8(%ebp)
c0104a77:	e8 05 00 00 00       	call   c0104a81 <tlb_invalidate>
c0104a7c:	83 c4 10             	add    $0x10,%esp
c0104a7f:	c9                   	leave  
c0104a80:	c3                   	ret    

c0104a81 <tlb_invalidate>:
c0104a81:	55                   	push   %ebp
c0104a82:	89 e5                	mov    %esp,%ebp
c0104a84:	83 ec 10             	sub    $0x10,%esp
c0104a87:	8b 45 0c             	mov    0xc(%ebp),%eax
c0104a8a:	89 45 fc             	mov    %eax,-0x4(%ebp)
c0104a8d:	8b 45 fc             	mov    -0x4(%ebp),%eax
c0104a90:	0f 01 38             	invlpg (%eax)
c0104a93:	c9                   	leave  
c0104a94:	c3                   	ret    

c0104a95 <set_tss>:
c0104a95:	55                   	push   %ebp
c0104a96:	89 e5                	mov    %esp,%ebp
c0104a98:	83 ec 10             	sub    $0x10,%esp
c0104a9b:	c7 05 08 58 11 c0 10 	movl   $0x10,0xc0115808
c0104aa2:	00 00 00 
c0104aa5:	c7 45 fc 00 58 11 c0 	movl   $0xc0115800,-0x4(%ebp)
c0104aac:	c7 45 f8 63 00 00 00 	movl   $0x63,-0x8(%ebp)
c0104ab3:	8b 45 f8             	mov    -0x8(%ebp),%eax
c0104ab6:	89 c2                	mov    %eax,%edx
c0104ab8:	8b 45 08             	mov    0x8(%ebp),%eax
c0104abb:	66 89 10             	mov    %dx,(%eax)
c0104abe:	8b 45 fc             	mov    -0x4(%ebp),%eax
c0104ac1:	89 c2                	mov    %eax,%edx
c0104ac3:	8b 45 08             	mov    0x8(%ebp),%eax
c0104ac6:	66 89 50 02          	mov    %dx,0x2(%eax)
c0104aca:	8b 45 fc             	mov    -0x4(%ebp),%eax
c0104acd:	c1 e8 10             	shr    $0x10,%eax
c0104ad0:	89 c2                	mov    %eax,%edx
c0104ad2:	8b 45 08             	mov    0x8(%ebp),%eax
c0104ad5:	88 50 04             	mov    %dl,0x4(%eax)
c0104ad8:	8b 45 08             	mov    0x8(%ebp),%eax
c0104adb:	0f b6 50 05          	movzbl 0x5(%eax),%edx
c0104adf:	83 e2 f0             	and    $0xfffffff0,%edx
c0104ae2:	83 ca 09             	or     $0x9,%edx
c0104ae5:	88 50 05             	mov    %dl,0x5(%eax)
c0104ae8:	8b 45 08             	mov    0x8(%ebp),%eax
c0104aeb:	0f b6 50 05          	movzbl 0x5(%eax),%edx
c0104aef:	83 e2 ef             	and    $0xffffffef,%edx
c0104af2:	88 50 05             	mov    %dl,0x5(%eax)
c0104af5:	8b 45 08             	mov    0x8(%ebp),%eax
c0104af8:	0f b6 50 05          	movzbl 0x5(%eax),%edx
c0104afc:	83 ca 60             	or     $0x60,%edx
c0104aff:	88 50 05             	mov    %dl,0x5(%eax)
c0104b02:	8b 45 08             	mov    0x8(%ebp),%eax
c0104b05:	0f b6 50 05          	movzbl 0x5(%eax),%edx
c0104b09:	83 ca 80             	or     $0xffffff80,%edx
c0104b0c:	88 50 05             	mov    %dl,0x5(%eax)
c0104b0f:	8b 45 f8             	mov    -0x8(%ebp),%eax
c0104b12:	c1 e8 10             	shr    $0x10,%eax
c0104b15:	83 e0 0f             	and    $0xf,%eax
c0104b18:	89 c2                	mov    %eax,%edx
c0104b1a:	8b 45 08             	mov    0x8(%ebp),%eax
c0104b1d:	89 d1                	mov    %edx,%ecx
c0104b1f:	83 e1 0f             	and    $0xf,%ecx
c0104b22:	0f b6 50 06          	movzbl 0x6(%eax),%edx
c0104b26:	83 e2 f0             	and    $0xfffffff0,%edx
c0104b29:	09 ca                	or     %ecx,%edx
c0104b2b:	88 50 06             	mov    %dl,0x6(%eax)
c0104b2e:	8b 45 08             	mov    0x8(%ebp),%eax
c0104b31:	0f b6 50 06          	movzbl 0x6(%eax),%edx
c0104b35:	83 e2 ef             	and    $0xffffffef,%edx
c0104b38:	88 50 06             	mov    %dl,0x6(%eax)
c0104b3b:	8b 45 08             	mov    0x8(%ebp),%eax
c0104b3e:	0f b6 50 06          	movzbl 0x6(%eax),%edx
c0104b42:	83 e2 df             	and    $0xffffffdf,%edx
c0104b45:	88 50 06             	mov    %dl,0x6(%eax)
c0104b48:	8b 45 08             	mov    0x8(%ebp),%eax
c0104b4b:	0f b6 50 06          	movzbl 0x6(%eax),%edx
c0104b4f:	83 ca 40             	or     $0x40,%edx
c0104b52:	88 50 06             	mov    %dl,0x6(%eax)
c0104b55:	8b 45 08             	mov    0x8(%ebp),%eax
c0104b58:	0f b6 50 06          	movzbl 0x6(%eax),%edx
c0104b5c:	83 e2 7f             	and    $0x7f,%edx
c0104b5f:	88 50 06             	mov    %dl,0x6(%eax)
c0104b62:	8b 45 fc             	mov    -0x4(%ebp),%eax
c0104b65:	c1 e8 18             	shr    $0x18,%eax
c0104b68:	89 c2                	mov    %eax,%edx
c0104b6a:	8b 45 08             	mov    0x8(%ebp),%eax
c0104b6d:	88 50 07             	mov    %dl,0x7(%eax)
c0104b70:	c9                   	leave  
c0104b71:	c3                   	ret    

c0104b72 <set_segment>:
c0104b72:	55                   	push   %ebp
c0104b73:	89 e5                	mov    %esp,%ebp
c0104b75:	8b 45 08             	mov    0x8(%ebp),%eax
c0104b78:	66 c7 00 ff ff       	movw   $0xffff,(%eax)
c0104b7d:	8b 45 08             	mov    0x8(%ebp),%eax
c0104b80:	66 c7 40 02 00 00    	movw   $0x0,0x2(%eax)
c0104b86:	8b 45 08             	mov    0x8(%ebp),%eax
c0104b89:	c6 40 04 00          	movb   $0x0,0x4(%eax)
c0104b8d:	8b 45 10             	mov    0x10(%ebp),%eax
c0104b90:	83 e0 0f             	and    $0xf,%eax
c0104b93:	89 c2                	mov    %eax,%edx
c0104b95:	8b 45 08             	mov    0x8(%ebp),%eax
c0104b98:	89 d1                	mov    %edx,%ecx
c0104b9a:	83 e1 0f             	and    $0xf,%ecx
c0104b9d:	0f b6 50 05          	movzbl 0x5(%eax),%edx
c0104ba1:	83 e2 f0             	and    $0xfffffff0,%edx
c0104ba4:	09 ca                	or     %ecx,%edx
c0104ba6:	88 50 05             	mov    %dl,0x5(%eax)
c0104ba9:	8b 45 08             	mov    0x8(%ebp),%eax
c0104bac:	0f b6 50 05          	movzbl 0x5(%eax),%edx
c0104bb0:	83 ca 10             	or     $0x10,%edx
c0104bb3:	88 50 05             	mov    %dl,0x5(%eax)
c0104bb6:	8b 45 0c             	mov    0xc(%ebp),%eax
c0104bb9:	83 e0 03             	and    $0x3,%eax
c0104bbc:	89 c2                	mov    %eax,%edx
c0104bbe:	8b 45 08             	mov    0x8(%ebp),%eax
c0104bc1:	83 e2 03             	and    $0x3,%edx
c0104bc4:	89 d1                	mov    %edx,%ecx
c0104bc6:	c1 e1 05             	shl    $0x5,%ecx
c0104bc9:	0f b6 50 05          	movzbl 0x5(%eax),%edx
c0104bcd:	83 e2 9f             	and    $0xffffff9f,%edx
c0104bd0:	09 ca                	or     %ecx,%edx
c0104bd2:	88 50 05             	mov    %dl,0x5(%eax)
c0104bd5:	8b 45 08             	mov    0x8(%ebp),%eax
c0104bd8:	0f b6 50 05          	movzbl 0x5(%eax),%edx
c0104bdc:	83 ca 80             	or     $0xffffff80,%edx
c0104bdf:	88 50 05             	mov    %dl,0x5(%eax)
c0104be2:	8b 45 08             	mov    0x8(%ebp),%eax
c0104be5:	0f b6 50 06          	movzbl 0x6(%eax),%edx
c0104be9:	83 ca 0f             	or     $0xf,%edx
c0104bec:	88 50 06             	mov    %dl,0x6(%eax)
c0104bef:	8b 45 08             	mov    0x8(%ebp),%eax
c0104bf2:	0f b6 50 06          	movzbl 0x6(%eax),%edx
c0104bf6:	83 e2 ef             	and    $0xffffffef,%edx
c0104bf9:	88 50 06             	mov    %dl,0x6(%eax)
c0104bfc:	8b 45 08             	mov    0x8(%ebp),%eax
c0104bff:	0f b6 50 06          	movzbl 0x6(%eax),%edx
c0104c03:	83 e2 df             	and    $0xffffffdf,%edx
c0104c06:	88 50 06             	mov    %dl,0x6(%eax)
c0104c09:	8b 45 08             	mov    0x8(%ebp),%eax
c0104c0c:	0f b6 50 06          	movzbl 0x6(%eax),%edx
c0104c10:	83 ca 40             	or     $0x40,%edx
c0104c13:	88 50 06             	mov    %dl,0x6(%eax)
c0104c16:	8b 45 08             	mov    0x8(%ebp),%eax
c0104c19:	0f b6 50 06          	movzbl 0x6(%eax),%edx
c0104c1d:	83 ca 80             	or     $0xffffff80,%edx
c0104c20:	88 50 06             	mov    %dl,0x6(%eax)
c0104c23:	8b 45 08             	mov    0x8(%ebp),%eax
c0104c26:	c6 40 07 00          	movb   $0x0,0x7(%eax)
c0104c2a:	5d                   	pop    %ebp
c0104c2b:	c3                   	ret    

c0104c2c <write_gdt>:
c0104c2c:	55                   	push   %ebp
c0104c2d:	89 e5                	mov    %esp,%ebp
c0104c2f:	8b 45 0c             	mov    0xc(%ebp),%eax
c0104c32:	83 e8 01             	sub    $0x1,%eax
c0104c35:	66 a3 80 68 11 c0    	mov    %ax,0xc0116880
c0104c3b:	8b 45 08             	mov    0x8(%ebp),%eax
c0104c3e:	66 a3 82 68 11 c0    	mov    %ax,0xc0116882
c0104c44:	8b 45 08             	mov    0x8(%ebp),%eax
c0104c47:	c1 e8 10             	shr    $0x10,%eax
c0104c4a:	66 a3 84 68 11 c0    	mov    %ax,0xc0116884
c0104c50:	b8 80 68 11 c0       	mov    $0xc0116880,%eax
c0104c55:	0f 01 10             	lgdtl  (%eax)
c0104c58:	5d                   	pop    %ebp
c0104c59:	c3                   	ret    

c0104c5a <init_segment>:
c0104c5a:	55                   	push   %ebp
c0104c5b:	89 e5                	mov    %esp,%ebp
c0104c5d:	83 ec 18             	sub    $0x18,%esp
c0104c60:	83 ec 04             	sub    $0x4,%esp
c0104c63:	68 00 10 00 00       	push   $0x1000
c0104c68:	6a 00                	push   $0x0
c0104c6a:	68 80 58 11 c0       	push   $0xc0115880
c0104c6f:	e8 a8 d8 ff ff       	call   c010251c <memset>
c0104c74:	83 c4 10             	add    $0x10,%esp
c0104c77:	83 ec 04             	sub    $0x4,%esp
c0104c7a:	6a 0a                	push   $0xa
c0104c7c:	6a 00                	push   $0x0
c0104c7e:	68 88 58 11 c0       	push   $0xc0115888
c0104c83:	e8 ea fe ff ff       	call   c0104b72 <set_segment>
c0104c88:	83 c4 10             	add    $0x10,%esp
c0104c8b:	83 ec 04             	sub    $0x4,%esp
c0104c8e:	6a 02                	push   $0x2
c0104c90:	6a 00                	push   $0x0
c0104c92:	68 90 58 11 c0       	push   $0xc0115890
c0104c97:	e8 d6 fe ff ff       	call   c0104b72 <set_segment>
c0104c9c:	83 c4 10             	add    $0x10,%esp
c0104c9f:	83 ec 04             	sub    $0x4,%esp
c0104ca2:	6a 0a                	push   $0xa
c0104ca4:	6a 03                	push   $0x3
c0104ca6:	68 98 58 11 c0       	push   $0xc0115898
c0104cab:	e8 c2 fe ff ff       	call   c0104b72 <set_segment>
c0104cb0:	83 c4 10             	add    $0x10,%esp
c0104cb3:	83 ec 04             	sub    $0x4,%esp
c0104cb6:	6a 02                	push   $0x2
c0104cb8:	6a 03                	push   $0x3
c0104cba:	68 a0 58 11 c0       	push   $0xc01158a0
c0104cbf:	e8 ae fe ff ff       	call   c0104b72 <set_segment>
c0104cc4:	83 c4 10             	add    $0x10,%esp
c0104cc7:	83 ec 08             	sub    $0x8,%esp
c0104cca:	68 00 10 00 00       	push   $0x1000
c0104ccf:	68 80 58 11 c0       	push   $0xc0115880
c0104cd4:	e8 53 ff ff ff       	call   c0104c2c <write_gdt>
c0104cd9:	83 c4 10             	add    $0x10,%esp
c0104cdc:	83 ec 0c             	sub    $0xc,%esp
c0104cdf:	68 98 58 11 c0       	push   $0xc0115898
c0104ce4:	e8 ac fd ff ff       	call   c0104a95 <set_tss>
c0104ce9:	83 c4 10             	add    $0x10,%esp
c0104cec:	66 c7 45 f6 1b 00    	movw   $0x1b,-0xa(%ebp)
c0104cf2:	0f b7 45 f6          	movzwl -0xa(%ebp),%eax
c0104cf6:	0f 00 d8             	ltr    %ax
c0104cf9:	c9                   	leave  
c0104cfa:	c3                   	ret    

c0104cfb <out_byte>:
c0104cfb:	55                   	push   %ebp
c0104cfc:	89 e5                	mov    %esp,%ebp
c0104cfe:	83 ec 08             	sub    $0x8,%esp
c0104d01:	8b 55 08             	mov    0x8(%ebp),%edx
c0104d04:	8b 45 0c             	mov    0xc(%ebp),%eax
c0104d07:	66 89 55 fc          	mov    %dx,-0x4(%ebp)
c0104d0b:	88 45 f8             	mov    %al,-0x8(%ebp)
c0104d0e:	0f b6 45 f8          	movzbl -0x8(%ebp),%eax
c0104d12:	0f b7 55 fc          	movzwl -0x4(%ebp),%edx
c0104d16:	ee                   	out    %al,(%dx)
c0104d17:	c9                   	leave  
c0104d18:	c3                   	ret    

c0104d19 <init_intr>:
c0104d19:	55                   	push   %ebp
c0104d1a:	89 e5                	mov    %esp,%ebp
c0104d1c:	6a ff                	push   $0xffffffff
c0104d1e:	6a 21                	push   $0x21
c0104d20:	e8 d6 ff ff ff       	call   c0104cfb <out_byte>
c0104d25:	83 c4 08             	add    $0x8,%esp
c0104d28:	6a ff                	push   $0xffffffff
c0104d2a:	68 a1 00 00 00       	push   $0xa1
c0104d2f:	e8 c7 ff ff ff       	call   c0104cfb <out_byte>
c0104d34:	83 c4 08             	add    $0x8,%esp
c0104d37:	6a 11                	push   $0x11
c0104d39:	6a 20                	push   $0x20
c0104d3b:	e8 bb ff ff ff       	call   c0104cfb <out_byte>
c0104d40:	83 c4 08             	add    $0x8,%esp
c0104d43:	6a 20                	push   $0x20
c0104d45:	6a 21                	push   $0x21
c0104d47:	e8 af ff ff ff       	call   c0104cfb <out_byte>
c0104d4c:	83 c4 08             	add    $0x8,%esp
c0104d4f:	6a 04                	push   $0x4
c0104d51:	6a 21                	push   $0x21
c0104d53:	e8 a3 ff ff ff       	call   c0104cfb <out_byte>
c0104d58:	83 c4 08             	add    $0x8,%esp
c0104d5b:	6a 03                	push   $0x3
c0104d5d:	6a 21                	push   $0x21
c0104d5f:	e8 97 ff ff ff       	call   c0104cfb <out_byte>
c0104d64:	83 c4 08             	add    $0x8,%esp
c0104d67:	6a 11                	push   $0x11
c0104d69:	68 a0 00 00 00       	push   $0xa0
c0104d6e:	e8 88 ff ff ff       	call   c0104cfb <out_byte>
c0104d73:	83 c4 08             	add    $0x8,%esp
c0104d76:	6a 28                	push   $0x28
c0104d78:	68 a1 00 00 00       	push   $0xa1
c0104d7d:	e8 79 ff ff ff       	call   c0104cfb <out_byte>
c0104d82:	83 c4 08             	add    $0x8,%esp
c0104d85:	6a 02                	push   $0x2
c0104d87:	68 a1 00 00 00       	push   $0xa1
c0104d8c:	e8 6a ff ff ff       	call   c0104cfb <out_byte>
c0104d91:	83 c4 08             	add    $0x8,%esp
c0104d94:	6a 03                	push   $0x3
c0104d96:	68 a1 00 00 00       	push   $0xa1
c0104d9b:	e8 5b ff ff ff       	call   c0104cfb <out_byte>
c0104da0:	83 c4 08             	add    $0x8,%esp
c0104da3:	6a 68                	push   $0x68
c0104da5:	6a 20                	push   $0x20
c0104da7:	e8 4f ff ff ff       	call   c0104cfb <out_byte>
c0104dac:	83 c4 08             	add    $0x8,%esp
c0104daf:	6a 0a                	push   $0xa
c0104db1:	6a 20                	push   $0x20
c0104db3:	e8 43 ff ff ff       	call   c0104cfb <out_byte>
c0104db8:	83 c4 08             	add    $0x8,%esp
c0104dbb:	6a 68                	push   $0x68
c0104dbd:	68 a0 00 00 00       	push   $0xa0
c0104dc2:	e8 34 ff ff ff       	call   c0104cfb <out_byte>
c0104dc7:	83 c4 08             	add    $0x8,%esp
c0104dca:	6a 0a                	push   $0xa
c0104dcc:	68 a0 00 00 00       	push   $0xa0
c0104dd1:	e8 25 ff ff ff       	call   c0104cfb <out_byte>
c0104dd6:	83 c4 08             	add    $0x8,%esp
c0104dd9:	c9                   	leave  
c0104dda:	c3                   	ret    

c0104ddb <save_idt>:
c0104ddb:	55                   	push   %ebp
c0104ddc:	89 e5                	mov    %esp,%ebp
c0104dde:	8b 45 0c             	mov    0xc(%ebp),%eax
c0104de1:	83 e8 01             	sub    $0x1,%eax
c0104de4:	66 a3 86 68 11 c0    	mov    %ax,0xc0116886
c0104dea:	8b 45 08             	mov    0x8(%ebp),%eax
c0104ded:	66 a3 88 68 11 c0    	mov    %ax,0xc0116888
c0104df3:	8b 45 08             	mov    0x8(%ebp),%eax
c0104df6:	c1 e8 10             	shr    $0x10,%eax
c0104df9:	66 a3 8a 68 11 c0    	mov    %ax,0xc011688a
c0104dff:	b8 86 68 11 c0       	mov    $0xc0116886,%eax
c0104e04:	0f 01 18             	lidtl  (%eax)
c0104e07:	5d                   	pop    %ebp
c0104e08:	c3                   	ret    

c0104e09 <set_intr>:
c0104e09:	55                   	push   %ebp
c0104e0a:	89 e5                	mov    %esp,%ebp
c0104e0c:	8b 45 10             	mov    0x10(%ebp),%eax
c0104e0f:	89 c2                	mov    %eax,%edx
c0104e11:	8b 45 08             	mov    0x8(%ebp),%eax
c0104e14:	66 89 10             	mov    %dx,(%eax)
c0104e17:	8b 45 0c             	mov    0xc(%ebp),%eax
c0104e1a:	8d 14 c5 00 00 00 00 	lea    0x0(,%eax,8),%edx
c0104e21:	8b 45 08             	mov    0x8(%ebp),%eax
c0104e24:	66 89 50 02          	mov    %dx,0x2(%eax)
c0104e28:	8b 45 08             	mov    0x8(%ebp),%eax
c0104e2b:	c6 40 04 00          	movb   $0x0,0x4(%eax)
c0104e2f:	8b 45 08             	mov    0x8(%ebp),%eax
c0104e32:	0f b6 50 05          	movzbl 0x5(%eax),%edx
c0104e36:	83 e2 f0             	and    $0xfffffff0,%edx
c0104e39:	83 ca 0e             	or     $0xe,%edx
c0104e3c:	88 50 05             	mov    %dl,0x5(%eax)
c0104e3f:	8b 45 08             	mov    0x8(%ebp),%eax
c0104e42:	0f b6 50 05          	movzbl 0x5(%eax),%edx
c0104e46:	83 e2 ef             	and    $0xffffffef,%edx
c0104e49:	88 50 05             	mov    %dl,0x5(%eax)
c0104e4c:	8b 45 14             	mov    0x14(%ebp),%eax
c0104e4f:	83 e0 03             	and    $0x3,%eax
c0104e52:	89 c2                	mov    %eax,%edx
c0104e54:	8b 45 08             	mov    0x8(%ebp),%eax
c0104e57:	83 e2 03             	and    $0x3,%edx
c0104e5a:	89 d1                	mov    %edx,%ecx
c0104e5c:	c1 e1 05             	shl    $0x5,%ecx
c0104e5f:	0f b6 50 05          	movzbl 0x5(%eax),%edx
c0104e63:	83 e2 9f             	and    $0xffffff9f,%edx
c0104e66:	09 ca                	or     %ecx,%edx
c0104e68:	88 50 05             	mov    %dl,0x5(%eax)
c0104e6b:	8b 45 08             	mov    0x8(%ebp),%eax
c0104e6e:	0f b6 50 05          	movzbl 0x5(%eax),%edx
c0104e72:	83 ca 80             	or     $0xffffff80,%edx
c0104e75:	88 50 05             	mov    %dl,0x5(%eax)
c0104e78:	8b 45 10             	mov    0x10(%ebp),%eax
c0104e7b:	c1 e8 10             	shr    $0x10,%eax
c0104e7e:	89 c2                	mov    %eax,%edx
c0104e80:	8b 45 08             	mov    0x8(%ebp),%eax
c0104e83:	66 89 50 06          	mov    %dx,0x6(%eax)
c0104e87:	5d                   	pop    %ebp
c0104e88:	c3                   	ret    

c0104e89 <set_trap>:
c0104e89:	55                   	push   %ebp
c0104e8a:	89 e5                	mov    %esp,%ebp
c0104e8c:	8b 45 10             	mov    0x10(%ebp),%eax
c0104e8f:	89 c2                	mov    %eax,%edx
c0104e91:	8b 45 08             	mov    0x8(%ebp),%eax
c0104e94:	66 89 10             	mov    %dx,(%eax)
c0104e97:	8b 45 0c             	mov    0xc(%ebp),%eax
c0104e9a:	8d 14 c5 00 00 00 00 	lea    0x0(,%eax,8),%edx
c0104ea1:	8b 45 08             	mov    0x8(%ebp),%eax
c0104ea4:	66 89 50 02          	mov    %dx,0x2(%eax)
c0104ea8:	8b 45 08             	mov    0x8(%ebp),%eax
c0104eab:	c6 40 04 00          	movb   $0x0,0x4(%eax)
c0104eaf:	8b 45 08             	mov    0x8(%ebp),%eax
c0104eb2:	0f b6 50 05          	movzbl 0x5(%eax),%edx
c0104eb6:	83 e2 f0             	and    $0xfffffff0,%edx
c0104eb9:	83 ca 0e             	or     $0xe,%edx
c0104ebc:	88 50 05             	mov    %dl,0x5(%eax)
c0104ebf:	8b 45 08             	mov    0x8(%ebp),%eax
c0104ec2:	0f b6 50 05          	movzbl 0x5(%eax),%edx
c0104ec6:	83 e2 ef             	and    $0xffffffef,%edx
c0104ec9:	88 50 05             	mov    %dl,0x5(%eax)
c0104ecc:	8b 45 14             	mov    0x14(%ebp),%eax
c0104ecf:	83 e0 03             	and    $0x3,%eax
c0104ed2:	89 c2                	mov    %eax,%edx
c0104ed4:	8b 45 08             	mov    0x8(%ebp),%eax
c0104ed7:	83 e2 03             	and    $0x3,%edx
c0104eda:	89 d1                	mov    %edx,%ecx
c0104edc:	c1 e1 05             	shl    $0x5,%ecx
c0104edf:	0f b6 50 05          	movzbl 0x5(%eax),%edx
c0104ee3:	83 e2 9f             	and    $0xffffff9f,%edx
c0104ee6:	09 ca                	or     %ecx,%edx
c0104ee8:	88 50 05             	mov    %dl,0x5(%eax)
c0104eeb:	8b 45 08             	mov    0x8(%ebp),%eax
c0104eee:	0f b6 50 05          	movzbl 0x5(%eax),%edx
c0104ef2:	83 ca 80             	or     $0xffffff80,%edx
c0104ef5:	88 50 05             	mov    %dl,0x5(%eax)
c0104ef8:	8b 45 10             	mov    0x10(%ebp),%eax
c0104efb:	c1 e8 10             	shr    $0x10,%eax
c0104efe:	89 c2                	mov    %eax,%edx
c0104f00:	8b 45 08             	mov    0x8(%ebp),%eax
c0104f03:	66 89 50 06          	mov    %dx,0x6(%eax)
c0104f07:	5d                   	pop    %ebp
c0104f08:	c3                   	ret    

c0104f09 <init_idt>:
c0104f09:	55                   	push   %ebp
c0104f0a:	89 e5                	mov    %esp,%ebp
c0104f0c:	83 ec 10             	sub    $0x10,%esp
c0104f0f:	c7 45 fc 00 00 00 00 	movl   $0x0,-0x4(%ebp)
c0104f16:	eb 22                	jmp    c0104f3a <init_idt+0x31>
c0104f18:	ba 20 69 10 c0       	mov    $0xc0106920,%edx
c0104f1d:	8b 45 fc             	mov    -0x4(%ebp),%eax
c0104f20:	c1 e0 03             	shl    $0x3,%eax
c0104f23:	05 80 7b 16 c0       	add    $0xc0167b80,%eax
c0104f28:	6a 00                	push   $0x0
c0104f2a:	52                   	push   %edx
c0104f2b:	6a 01                	push   $0x1
c0104f2d:	50                   	push   %eax
c0104f2e:	e8 56 ff ff ff       	call   c0104e89 <set_trap>
c0104f33:	83 c4 10             	add    $0x10,%esp
c0104f36:	83 45 fc 01          	addl   $0x1,-0x4(%ebp)
c0104f3a:	81 7d fc ff 00 00 00 	cmpl   $0xff,-0x4(%ebp)
c0104f41:	7e d5                	jle    c0104f18 <init_idt+0xf>
c0104f43:	b8 69 68 10 c0       	mov    $0xc0106869,%eax
c0104f48:	6a 00                	push   $0x0
c0104f4a:	50                   	push   %eax
c0104f4b:	6a 01                	push   $0x1
c0104f4d:	68 80 7b 16 c0       	push   $0xc0167b80
c0104f52:	e8 32 ff ff ff       	call   c0104e89 <set_trap>
c0104f57:	83 c4 10             	add    $0x10,%esp
c0104f5a:	b8 72 68 10 c0       	mov    $0xc0106872,%eax
c0104f5f:	6a 00                	push   $0x0
c0104f61:	50                   	push   %eax
c0104f62:	6a 01                	push   $0x1
c0104f64:	68 88 7b 16 c0       	push   $0xc0167b88
c0104f69:	e8 1b ff ff ff       	call   c0104e89 <set_trap>
c0104f6e:	83 c4 10             	add    $0x10,%esp
c0104f71:	b8 7b 68 10 c0       	mov    $0xc010687b,%eax
c0104f76:	6a 00                	push   $0x0
c0104f78:	50                   	push   %eax
c0104f79:	6a 01                	push   $0x1
c0104f7b:	68 90 7b 16 c0       	push   $0xc0167b90
c0104f80:	e8 04 ff ff ff       	call   c0104e89 <set_trap>
c0104f85:	83 c4 10             	add    $0x10,%esp
c0104f88:	b8 84 68 10 c0       	mov    $0xc0106884,%eax
c0104f8d:	6a 00                	push   $0x0
c0104f8f:	50                   	push   %eax
c0104f90:	6a 01                	push   $0x1
c0104f92:	68 98 7b 16 c0       	push   $0xc0167b98
c0104f97:	e8 ed fe ff ff       	call   c0104e89 <set_trap>
c0104f9c:	83 c4 10             	add    $0x10,%esp
c0104f9f:	b8 8d 68 10 c0       	mov    $0xc010688d,%eax
c0104fa4:	6a 00                	push   $0x0
c0104fa6:	50                   	push   %eax
c0104fa7:	6a 01                	push   $0x1
c0104fa9:	68 a0 7b 16 c0       	push   $0xc0167ba0
c0104fae:	e8 d6 fe ff ff       	call   c0104e89 <set_trap>
c0104fb3:	83 c4 10             	add    $0x10,%esp
c0104fb6:	b8 96 68 10 c0       	mov    $0xc0106896,%eax
c0104fbb:	6a 00                	push   $0x0
c0104fbd:	50                   	push   %eax
c0104fbe:	6a 01                	push   $0x1
c0104fc0:	68 a8 7b 16 c0       	push   $0xc0167ba8
c0104fc5:	e8 bf fe ff ff       	call   c0104e89 <set_trap>
c0104fca:	83 c4 10             	add    $0x10,%esp
c0104fcd:	b8 9f 68 10 c0       	mov    $0xc010689f,%eax
c0104fd2:	6a 00                	push   $0x0
c0104fd4:	50                   	push   %eax
c0104fd5:	6a 01                	push   $0x1
c0104fd7:	68 b0 7b 16 c0       	push   $0xc0167bb0
c0104fdc:	e8 a8 fe ff ff       	call   c0104e89 <set_trap>
c0104fe1:	83 c4 10             	add    $0x10,%esp
c0104fe4:	b8 a8 68 10 c0       	mov    $0xc01068a8,%eax
c0104fe9:	6a 00                	push   $0x0
c0104feb:	50                   	push   %eax
c0104fec:	6a 01                	push   $0x1
c0104fee:	68 b8 7b 16 c0       	push   $0xc0167bb8
c0104ff3:	e8 91 fe ff ff       	call   c0104e89 <set_trap>
c0104ff8:	83 c4 10             	add    $0x10,%esp
c0104ffb:	b8 b1 68 10 c0       	mov    $0xc01068b1,%eax
c0105000:	6a 00                	push   $0x0
c0105002:	50                   	push   %eax
c0105003:	6a 01                	push   $0x1
c0105005:	68 c0 7b 16 c0       	push   $0xc0167bc0
c010500a:	e8 7a fe ff ff       	call   c0104e89 <set_trap>
c010500f:	83 c4 10             	add    $0x10,%esp
c0105012:	b8 b8 68 10 c0       	mov    $0xc01068b8,%eax
c0105017:	6a 00                	push   $0x0
c0105019:	50                   	push   %eax
c010501a:	6a 01                	push   $0x1
c010501c:	68 c8 7b 16 c0       	push   $0xc0167bc8
c0105021:	e8 63 fe ff ff       	call   c0104e89 <set_trap>
c0105026:	83 c4 10             	add    $0x10,%esp
c0105029:	b8 c1 68 10 c0       	mov    $0xc01068c1,%eax
c010502e:	6a 00                	push   $0x0
c0105030:	50                   	push   %eax
c0105031:	6a 01                	push   $0x1
c0105033:	68 d0 7b 16 c0       	push   $0xc0167bd0
c0105038:	e8 4c fe ff ff       	call   c0104e89 <set_trap>
c010503d:	83 c4 10             	add    $0x10,%esp
c0105040:	b8 c8 68 10 c0       	mov    $0xc01068c8,%eax
c0105045:	6a 00                	push   $0x0
c0105047:	50                   	push   %eax
c0105048:	6a 01                	push   $0x1
c010504a:	68 d8 7b 16 c0       	push   $0xc0167bd8
c010504f:	e8 35 fe ff ff       	call   c0104e89 <set_trap>
c0105054:	83 c4 10             	add    $0x10,%esp
c0105057:	b8 cf 68 10 c0       	mov    $0xc01068cf,%eax
c010505c:	6a 00                	push   $0x0
c010505e:	50                   	push   %eax
c010505f:	6a 01                	push   $0x1
c0105061:	68 e0 7b 16 c0       	push   $0xc0167be0
c0105066:	e8 1e fe ff ff       	call   c0104e89 <set_trap>
c010506b:	83 c4 10             	add    $0x10,%esp
c010506e:	b8 d6 68 10 c0       	mov    $0xc01068d6,%eax
c0105073:	6a 00                	push   $0x0
c0105075:	50                   	push   %eax
c0105076:	6a 01                	push   $0x1
c0105078:	68 e8 7b 16 c0       	push   $0xc0167be8
c010507d:	e8 07 fe ff ff       	call   c0104e89 <set_trap>
c0105082:	83 c4 10             	add    $0x10,%esp
c0105085:	b8 dd 68 10 c0       	mov    $0xc01068dd,%eax
c010508a:	6a 00                	push   $0x0
c010508c:	50                   	push   %eax
c010508d:	6a 01                	push   $0x1
c010508f:	68 f0 7b 16 c0       	push   $0xc0167bf0
c0105094:	e8 f0 fd ff ff       	call   c0104e89 <set_trap>
c0105099:	83 c4 10             	add    $0x10,%esp
c010509c:	b8 e4 68 10 c0       	mov    $0xc01068e4,%eax
c01050a1:	6a 03                	push   $0x3
c01050a3:	50                   	push   %eax
c01050a4:	6a 01                	push   $0x1
c01050a6:	68 80 7f 16 c0       	push   $0xc0167f80
c01050ab:	e8 d9 fd ff ff       	call   c0104e89 <set_trap>
c01050b0:	83 c4 10             	add    $0x10,%esp
c01050b3:	b8 f0 68 10 c0       	mov    $0xc01068f0,%eax
c01050b8:	6a 03                	push   $0x3
c01050ba:	50                   	push   %eax
c01050bb:	6a 01                	push   $0x1
c01050bd:	68 88 7f 16 c0       	push   $0xc0167f88
c01050c2:	e8 c2 fd ff ff       	call   c0104e89 <set_trap>
c01050c7:	83 c4 10             	add    $0x10,%esp
c01050ca:	b8 fc 68 10 c0       	mov    $0xc01068fc,%eax
c01050cf:	6a 00                	push   $0x0
c01050d1:	50                   	push   %eax
c01050d2:	6a 01                	push   $0x1
c01050d4:	68 80 7c 16 c0       	push   $0xc0167c80
c01050d9:	e8 2b fd ff ff       	call   c0104e09 <set_intr>
c01050de:	83 c4 10             	add    $0x10,%esp
c01050e1:	b8 08 69 10 c0       	mov    $0xc0106908,%eax
c01050e6:	6a 00                	push   $0x0
c01050e8:	50                   	push   %eax
c01050e9:	6a 01                	push   $0x1
c01050eb:	68 88 7c 16 c0       	push   $0xc0167c88
c01050f0:	e8 14 fd ff ff       	call   c0104e09 <set_intr>
c01050f5:	83 c4 10             	add    $0x10,%esp
c01050f8:	b8 14 69 10 c0       	mov    $0xc0106914,%eax
c01050fd:	6a 00                	push   $0x0
c01050ff:	50                   	push   %eax
c0105100:	6a 01                	push   $0x1
c0105102:	68 f0 7c 16 c0       	push   $0xc0167cf0
c0105107:	e8 fd fc ff ff       	call   c0104e09 <set_intr>
c010510c:	83 c4 10             	add    $0x10,%esp
c010510f:	68 00 08 00 00       	push   $0x800
c0105114:	68 80 7b 16 c0       	push   $0xc0167b80
c0105119:	e8 bd fc ff ff       	call   c0104ddb <save_idt>
c010511e:	83 c4 08             	add    $0x8,%esp
c0105121:	c9                   	leave  
c0105122:	c3                   	ret    

c0105123 <in_byte>:
c0105123:	55                   	push   %ebp
c0105124:	89 e5                	mov    %esp,%ebp
c0105126:	83 ec 14             	sub    $0x14,%esp
c0105129:	8b 45 08             	mov    0x8(%ebp),%eax
c010512c:	66 89 45 ec          	mov    %ax,-0x14(%ebp)
c0105130:	0f b7 45 ec          	movzwl -0x14(%ebp),%eax
c0105134:	89 c2                	mov    %eax,%edx
c0105136:	ec                   	in     (%dx),%al
c0105137:	88 45 ff             	mov    %al,-0x1(%ebp)
c010513a:	0f b6 45 ff          	movzbl -0x1(%ebp),%eax
c010513e:	c9                   	leave  
c010513f:	c3                   	ret    

c0105140 <out_byte>:
c0105140:	55                   	push   %ebp
c0105141:	89 e5                	mov    %esp,%ebp
c0105143:	83 ec 08             	sub    $0x8,%esp
c0105146:	8b 55 08             	mov    0x8(%ebp),%edx
c0105149:	8b 45 0c             	mov    0xc(%ebp),%eax
c010514c:	66 89 55 fc          	mov    %dx,-0x4(%ebp)
c0105150:	88 45 f8             	mov    %al,-0x8(%ebp)
c0105153:	0f b6 45 f8          	movzbl -0x8(%ebp),%eax
c0105157:	0f b7 55 fc          	movzwl -0x4(%ebp),%edx
c010515b:	ee                   	out    %al,(%dx)
c010515c:	c9                   	leave  
c010515d:	c3                   	ret    

c010515e <set_timer_intr_handler>:
c010515e:	55                   	push   %ebp
c010515f:	89 e5                	mov    %esp,%ebp
c0105161:	8b 45 08             	mov    0x8(%ebp),%eax
c0105164:	a3 8c 68 11 c0       	mov    %eax,0xc011688c
c0105169:	5d                   	pop    %ebp
c010516a:	c3                   	ret    

c010516b <set_keyboard_intr_handler>:
c010516b:	55                   	push   %ebp
c010516c:	89 e5                	mov    %esp,%ebp
c010516e:	8b 45 08             	mov    0x8(%ebp),%eax
c0105171:	a3 90 68 11 c0       	mov    %eax,0xc0116890
c0105176:	5d                   	pop    %ebp
c0105177:	c3                   	ret    

c0105178 <irq_handle>:
c0105178:	55                   	push   %ebp
c0105179:	89 e5                	mov    %esp,%ebp
c010517b:	57                   	push   %edi
c010517c:	56                   	push   %esi
c010517d:	53                   	push   %ebx
c010517e:	83 ec 1c             	sub    $0x1c,%esp
c0105181:	8b 15 44 57 11 c0    	mov    0xc0115744,%edx
c0105187:	8b 45 08             	mov    0x8(%ebp),%eax
c010518a:	89 c3                	mov    %eax,%ebx
c010518c:	b8 12 00 00 00       	mov    $0x12,%eax
c0105191:	89 d7                	mov    %edx,%edi
c0105193:	89 de                	mov    %ebx,%esi
c0105195:	89 c1                	mov    %eax,%ecx
c0105197:	f3 a5                	rep movsl %ds:(%esi),%es:(%edi)
c0105199:	8b 45 08             	mov    0x8(%ebp),%eax
c010519c:	8b 40 28             	mov    0x28(%eax),%eax
c010519f:	83 f8 0e             	cmp    $0xe,%eax
c01051a2:	0f 84 63 01 00 00    	je     c010530b <irq_handle+0x193>
c01051a8:	8b 45 08             	mov    0x8(%ebp),%eax
c01051ab:	8b 40 28             	mov    0x28(%eax),%eax
c01051ae:	3d f6 03 00 00       	cmp    $0x3f6,%eax
c01051b3:	0f 84 52 01 00 00    	je     c010530b <irq_handle+0x193>
c01051b9:	8b 45 08             	mov    0x8(%ebp),%eax
c01051bc:	8b 40 28             	mov    0x28(%eax),%eax
c01051bf:	83 f8 0d             	cmp    $0xd,%eax
c01051c2:	75 15                	jne    c01051d9 <irq_handle+0x61>
c01051c4:	83 ec 0c             	sub    $0xc,%esp
c01051c7:	68 a4 72 10 c0       	push   $0xc01072a4
c01051cc:	e8 b6 d7 ff ff       	call   c0102987 <printk>
c01051d1:	83 c4 10             	add    $0x10,%esp
c01051d4:	e9 32 01 00 00       	jmp    c010530b <irq_handle+0x193>
c01051d9:	8b 45 08             	mov    0x8(%ebp),%eax
c01051dc:	8b 40 28             	mov    0x28(%eax),%eax
c01051df:	3d 80 00 00 00       	cmp    $0x80,%eax
c01051e4:	75 13                	jne    c01051f9 <irq_handle+0x81>
c01051e6:	83 ec 0c             	sub    $0xc,%esp
c01051e9:	ff 75 08             	pushl  0x8(%ebp)
c01051ec:	e8 71 ef ff ff       	call   c0104162 <do_syscall>
c01051f1:	83 c4 10             	add    $0x10,%esp
c01051f4:	e9 12 01 00 00       	jmp    c010530b <irq_handle+0x193>
c01051f9:	8b 45 08             	mov    0x8(%ebp),%eax
c01051fc:	8b 40 28             	mov    0x28(%eax),%eax
c01051ff:	3d 81 00 00 00       	cmp    $0x81,%eax
c0105204:	75 1d                	jne    c0105223 <irq_handle+0xab>
c0105206:	8b 45 08             	mov    0x8(%ebp),%eax
c0105209:	8b 40 1c             	mov    0x1c(%eax),%eax
c010520c:	8b 15 00 c4 10 c0    	mov    0xc010c400,%edx
c0105212:	b9 80 3e 00 00       	mov    $0x3e80,%ecx
c0105217:	89 c6                	mov    %eax,%esi
c0105219:	89 d7                	mov    %edx,%edi
c010521b:	fc                   	cld    
c010521c:	f3 a5                	rep movsl %ds:(%esi),%es:(%edi)
c010521e:	e9 e8 00 00 00       	jmp    c010530b <irq_handle+0x193>
c0105223:	8b 45 08             	mov    0x8(%ebp),%eax
c0105226:	8b 40 28             	mov    0x28(%eax),%eax
c0105229:	3d e7 03 00 00       	cmp    $0x3e7,%eax
c010522e:	7f 56                	jg     c0105286 <irq_handle+0x10e>
c0105230:	8b 45 08             	mov    0x8(%ebp),%eax
c0105233:	8b 40 28             	mov    0x28(%eax),%eax
c0105236:	83 f8 ff             	cmp    $0xffffffff,%eax
c0105239:	75 19                	jne    c0105254 <irq_handle+0xdc>
c010523b:	83 ec 04             	sub    $0x4,%esp
c010523e:	6a 2c                	push   $0x2c
c0105240:	68 07 73 10 c0       	push   $0xc0107307
c0105245:	68 a9 72 10 c0       	push   $0xc01072a9
c010524a:	e8 38 d7 ff ff       	call   c0102987 <printk>
c010524f:	83 c4 10             	add    $0x10,%esp
c0105252:	eb 1b                	jmp    c010526f <irq_handle+0xf7>
c0105254:	8b 45 08             	mov    0x8(%ebp),%eax
c0105257:	8b 40 28             	mov    0x28(%eax),%eax
c010525a:	50                   	push   %eax
c010525b:	6a 2f                	push   $0x2f
c010525d:	68 07 73 10 c0       	push   $0xc0107307
c0105262:	68 c8 72 10 c0       	push   $0xc01072c8
c0105267:	e8 1b d7 ff ff       	call   c0102987 <printk>
c010526c:	83 c4 10             	add    $0x10,%esp
c010526f:	83 ec 08             	sub    $0x8,%esp
c0105272:	6a 31                	push   $0x31
c0105274:	68 eb 72 10 c0       	push   $0xc01072eb
c0105279:	e8 ee d7 ff ff       	call   c0102a6c <abort>
c010527e:	83 c4 10             	add    $0x10,%esp
c0105281:	e9 85 00 00 00       	jmp    c010530b <irq_handle+0x193>
c0105286:	8b 45 08             	mov    0x8(%ebp),%eax
c0105289:	8b 40 28             	mov    0x28(%eax),%eax
c010528c:	3d e8 03 00 00       	cmp    $0x3e8,%eax
c0105291:	75 09                	jne    c010529c <irq_handle+0x124>
c0105293:	a1 8c 68 11 c0       	mov    0xc011688c,%eax
c0105298:	ff d0                	call   *%eax
c010529a:	eb 6f                	jmp    c010530b <irq_handle+0x193>
c010529c:	8b 45 08             	mov    0x8(%ebp),%eax
c010529f:	8b 40 28             	mov    0x28(%eax),%eax
c01052a2:	3d e9 03 00 00       	cmp    $0x3e9,%eax
c01052a7:	75 62                	jne    c010530b <irq_handle+0x193>
c01052a9:	83 ec 0c             	sub    $0xc,%esp
c01052ac:	6a 60                	push   $0x60
c01052ae:	e8 70 fe ff ff       	call   c0105123 <in_byte>
c01052b3:	83 c4 10             	add    $0x10,%esp
c01052b6:	0f b6 c0             	movzbl %al,%eax
c01052b9:	89 45 e4             	mov    %eax,-0x1c(%ebp)
c01052bc:	83 ec 0c             	sub    $0xc,%esp
c01052bf:	6a 61                	push   $0x61
c01052c1:	e8 5d fe ff ff       	call   c0105123 <in_byte>
c01052c6:	83 c4 10             	add    $0x10,%esp
c01052c9:	0f b6 c0             	movzbl %al,%eax
c01052cc:	89 45 e0             	mov    %eax,-0x20(%ebp)
c01052cf:	8b 45 e0             	mov    -0x20(%ebp),%eax
c01052d2:	83 c8 80             	or     $0xffffff80,%eax
c01052d5:	0f be c0             	movsbl %al,%eax
c01052d8:	83 ec 08             	sub    $0x8,%esp
c01052db:	50                   	push   %eax
c01052dc:	6a 61                	push   $0x61
c01052de:	e8 5d fe ff ff       	call   c0105140 <out_byte>
c01052e3:	83 c4 10             	add    $0x10,%esp
c01052e6:	8b 45 e0             	mov    -0x20(%ebp),%eax
c01052e9:	0f be c0             	movsbl %al,%eax
c01052ec:	83 ec 08             	sub    $0x8,%esp
c01052ef:	50                   	push   %eax
c01052f0:	6a 61                	push   $0x61
c01052f2:	e8 49 fe ff ff       	call   c0105140 <out_byte>
c01052f7:	83 c4 10             	add    $0x10,%esp
c01052fa:	a1 90 68 11 c0       	mov    0xc0116890,%eax
c01052ff:	8b 55 e4             	mov    -0x1c(%ebp),%edx
c0105302:	83 ec 0c             	sub    $0xc,%esp
c0105305:	52                   	push   %edx
c0105306:	ff d0                	call   *%eax
c0105308:	83 c4 10             	add    $0x10,%esp
c010530b:	8d 65 f4             	lea    -0xc(%ebp),%esp
c010530e:	5b                   	pop    %ebx
c010530f:	5e                   	pop    %esi
c0105310:	5f                   	pop    %edi
c0105311:	5d                   	pop    %ebp
c0105312:	c3                   	ret    

c0105313 <in_byte>:
c0105313:	55                   	push   %ebp
c0105314:	89 e5                	mov    %esp,%ebp
c0105316:	83 ec 14             	sub    $0x14,%esp
c0105319:	8b 45 08             	mov    0x8(%ebp),%eax
c010531c:	66 89 45 ec          	mov    %ax,-0x14(%ebp)
c0105320:	0f b7 45 ec          	movzwl -0x14(%ebp),%eax
c0105324:	89 c2                	mov    %eax,%edx
c0105326:	ec                   	in     (%dx),%al
c0105327:	88 45 ff             	mov    %al,-0x1(%ebp)
c010532a:	0f b6 45 ff          	movzbl -0x1(%ebp),%eax
c010532e:	c9                   	leave  
c010532f:	c3                   	ret    

c0105330 <out_byte>:
c0105330:	55                   	push   %ebp
c0105331:	89 e5                	mov    %esp,%ebp
c0105333:	83 ec 08             	sub    $0x8,%esp
c0105336:	8b 55 08             	mov    0x8(%ebp),%edx
c0105339:	8b 45 0c             	mov    0xc(%ebp),%eax
c010533c:	66 89 55 fc          	mov    %dx,-0x4(%ebp)
c0105340:	88 45 f8             	mov    %al,-0x8(%ebp)
c0105343:	0f b6 45 f8          	movzbl -0x8(%ebp),%eax
c0105347:	0f b7 55 fc          	movzwl -0x4(%ebp),%edx
c010534b:	ee                   	out    %al,(%dx)
c010534c:	c9                   	leave  
c010534d:	c3                   	ret    

c010534e <init_serial>:
c010534e:	55                   	push   %ebp
c010534f:	89 e5                	mov    %esp,%ebp
c0105351:	6a 00                	push   $0x0
c0105353:	68 f9 03 00 00       	push   $0x3f9
c0105358:	e8 d3 ff ff ff       	call   c0105330 <out_byte>
c010535d:	83 c4 08             	add    $0x8,%esp
c0105360:	6a 80                	push   $0xffffff80
c0105362:	68 fb 03 00 00       	push   $0x3fb
c0105367:	e8 c4 ff ff ff       	call   c0105330 <out_byte>
c010536c:	83 c4 08             	add    $0x8,%esp
c010536f:	6a 01                	push   $0x1
c0105371:	68 f8 03 00 00       	push   $0x3f8
c0105376:	e8 b5 ff ff ff       	call   c0105330 <out_byte>
c010537b:	83 c4 08             	add    $0x8,%esp
c010537e:	6a 00                	push   $0x0
c0105380:	68 f9 03 00 00       	push   $0x3f9
c0105385:	e8 a6 ff ff ff       	call   c0105330 <out_byte>
c010538a:	83 c4 08             	add    $0x8,%esp
c010538d:	6a 03                	push   $0x3
c010538f:	68 fb 03 00 00       	push   $0x3fb
c0105394:	e8 97 ff ff ff       	call   c0105330 <out_byte>
c0105399:	83 c4 08             	add    $0x8,%esp
c010539c:	6a c7                	push   $0xffffffc7
c010539e:	68 fa 03 00 00       	push   $0x3fa
c01053a3:	e8 88 ff ff ff       	call   c0105330 <out_byte>
c01053a8:	83 c4 08             	add    $0x8,%esp
c01053ab:	6a 0b                	push   $0xb
c01053ad:	68 fc 03 00 00       	push   $0x3fc
c01053b2:	e8 79 ff ff ff       	call   c0105330 <out_byte>
c01053b7:	83 c4 08             	add    $0x8,%esp
c01053ba:	c9                   	leave  
c01053bb:	c3                   	ret    

c01053bc <serial_idle>:
c01053bc:	55                   	push   %ebp
c01053bd:	89 e5                	mov    %esp,%ebp
c01053bf:	68 fd 03 00 00       	push   $0x3fd
c01053c4:	e8 4a ff ff ff       	call   c0105313 <in_byte>
c01053c9:	83 c4 04             	add    $0x4,%esp
c01053cc:	0f b6 c0             	movzbl %al,%eax
c01053cf:	83 e0 20             	and    $0x20,%eax
c01053d2:	85 c0                	test   %eax,%eax
c01053d4:	0f 95 c0             	setne  %al
c01053d7:	0f b6 c0             	movzbl %al,%eax
c01053da:	c9                   	leave  
c01053db:	c3                   	ret    

c01053dc <serial_printc>:
c01053dc:	55                   	push   %ebp
c01053dd:	89 e5                	mov    %esp,%ebp
c01053df:	83 ec 04             	sub    $0x4,%esp
c01053e2:	8b 45 08             	mov    0x8(%ebp),%eax
c01053e5:	88 45 fc             	mov    %al,-0x4(%ebp)
c01053e8:	90                   	nop
c01053e9:	e8 ce ff ff ff       	call   c01053bc <serial_idle>
c01053ee:	83 f8 01             	cmp    $0x1,%eax
c01053f1:	75 f6                	jne    c01053e9 <serial_printc+0xd>
c01053f3:	0f be 45 fc          	movsbl -0x4(%ebp),%eax
c01053f7:	50                   	push   %eax
c01053f8:	68 f8 03 00 00       	push   $0x3f8
c01053fd:	e8 2e ff ff ff       	call   c0105330 <out_byte>
c0105402:	83 c4 08             	add    $0x8,%esp
c0105405:	c9                   	leave  
c0105406:	c3                   	ret    

c0105407 <out_byte>:
c0105407:	55                   	push   %ebp
c0105408:	89 e5                	mov    %esp,%ebp
c010540a:	83 ec 08             	sub    $0x8,%esp
c010540d:	8b 55 08             	mov    0x8(%ebp),%edx
c0105410:	8b 45 0c             	mov    0xc(%ebp),%eax
c0105413:	66 89 55 fc          	mov    %dx,-0x4(%ebp)
c0105417:	88 45 f8             	mov    %al,-0x8(%ebp)
c010541a:	0f b6 45 f8          	movzbl -0x8(%ebp),%eax
c010541e:	0f b7 55 fc          	movzwl -0x4(%ebp),%edx
c0105422:	ee                   	out    %al,(%dx)
c0105423:	c9                   	leave  
c0105424:	c3                   	ret    

c0105425 <init_timer>:
c0105425:	55                   	push   %ebp
c0105426:	89 e5                	mov    %esp,%ebp
c0105428:	83 ec 10             	sub    $0x10,%esp
c010542b:	c7 45 fc a9 04 00 00 	movl   $0x4a9,-0x4(%ebp)
c0105432:	6a 34                	push   $0x34
c0105434:	6a 43                	push   $0x43
c0105436:	e8 cc ff ff ff       	call   c0105407 <out_byte>
c010543b:	83 c4 08             	add    $0x8,%esp
c010543e:	8b 45 fc             	mov    -0x4(%ebp),%eax
c0105441:	99                   	cltd   
c0105442:	c1 ea 18             	shr    $0x18,%edx
c0105445:	01 d0                	add    %edx,%eax
c0105447:	0f b6 c0             	movzbl %al,%eax
c010544a:	29 d0                	sub    %edx,%eax
c010544c:	0f be c0             	movsbl %al,%eax
c010544f:	50                   	push   %eax
c0105450:	6a 40                	push   $0x40
c0105452:	e8 b0 ff ff ff       	call   c0105407 <out_byte>
c0105457:	83 c4 08             	add    $0x8,%esp
c010545a:	8b 45 fc             	mov    -0x4(%ebp),%eax
c010545d:	8d 90 ff 00 00 00    	lea    0xff(%eax),%edx
c0105463:	85 c0                	test   %eax,%eax
c0105465:	0f 48 c2             	cmovs  %edx,%eax
c0105468:	c1 f8 08             	sar    $0x8,%eax
c010546b:	0f be c0             	movsbl %al,%eax
c010546e:	50                   	push   %eax
c010546f:	6a 40                	push   $0x40
c0105471:	e8 91 ff ff ff       	call   c0105407 <out_byte>
c0105476:	83 c4 08             	add    $0x8,%esp
c0105479:	c9                   	leave  
c010547a:	c3                   	ret    

c010547b <draw_pixel>:
c010547b:	55                   	push   %ebp
c010547c:	89 e5                	mov    %esp,%ebp
c010547e:	a1 00 c4 10 c0       	mov    0xc010c400,%eax
c0105483:	8b 55 08             	mov    0x8(%ebp),%edx
c0105486:	89 d1                	mov    %edx,%ecx
c0105488:	c1 e1 08             	shl    $0x8,%ecx
c010548b:	8b 55 08             	mov    0x8(%ebp),%edx
c010548e:	c1 e2 06             	shl    $0x6,%edx
c0105491:	01 d1                	add    %edx,%ecx
c0105493:	8b 55 0c             	mov    0xc(%ebp),%edx
c0105496:	01 ca                	add    %ecx,%edx
c0105498:	01 d0                	add    %edx,%eax
c010549a:	8b 55 10             	mov    0x10(%ebp),%edx
c010549d:	88 10                	mov    %dl,(%eax)
c010549f:	5d                   	pop    %ebp
c01054a0:	c3                   	ret    

c01054a1 <prepare_buffer>:
c01054a1:	55                   	push   %ebp
c01054a2:	89 e5                	mov    %esp,%ebp
c01054a4:	83 ec 08             	sub    $0x8,%esp
c01054a7:	83 ec 04             	sub    $0x4,%esp
c01054aa:	68 00 fa 00 00       	push   $0xfa00
c01054af:	68 c0 68 11 c0       	push   $0xc01168c0
c01054b4:	68 c0 62 12 c0       	push   $0xc01262c0
c01054b9:	e8 41 d0 ff ff       	call   c01024ff <memcpy>
c01054be:	83 c4 10             	add    $0x10,%esp
c01054c1:	c7 05 00 c4 10 c0 c0 	movl   $0xc01168c0,0xc010c400
c01054c8:	68 11 c0 
c01054cb:	a1 00 c4 10 c0       	mov    0xc010c400,%eax
c01054d0:	83 ec 04             	sub    $0x4,%esp
c01054d3:	68 00 fa 00 00       	push   $0xfa00
c01054d8:	6a 00                	push   $0x0
c01054da:	50                   	push   %eax
c01054db:	e8 3c d0 ff ff       	call   c010251c <memset>
c01054e0:	83 c4 10             	add    $0x10,%esp
c01054e3:	c9                   	leave  
c01054e4:	c3                   	ret    

c01054e5 <display_buffer>:
c01054e5:	55                   	push   %ebp
c01054e6:	89 e5                	mov    %esp,%ebp
c01054e8:	83 ec 10             	sub    $0x10,%esp
c01054eb:	c7 45 f8 c0 68 11 c0 	movl   $0xc01168c0,-0x8(%ebp)
c01054f2:	c7 45 f4 c0 62 12 c0 	movl   $0xc01262c0,-0xc(%ebp)
c01054f9:	c7 45 f0 00 00 0a 00 	movl   $0xa0000,-0x10(%ebp)
c0105500:	c7 05 00 c4 10 c0 00 	movl   $0xa0000,0xc010c400
c0105507:	00 0a 00 
c010550a:	c7 45 fc 00 00 00 00 	movl   $0x0,-0x4(%ebp)
c0105511:	eb 4c                	jmp    c010555f <display_buffer+0x7a>
c0105513:	8b 45 fc             	mov    -0x4(%ebp),%eax
c0105516:	8d 14 85 00 00 00 00 	lea    0x0(,%eax,4),%edx
c010551d:	8b 45 f8             	mov    -0x8(%ebp),%eax
c0105520:	01 d0                	add    %edx,%eax
c0105522:	8b 10                	mov    (%eax),%edx
c0105524:	8b 45 fc             	mov    -0x4(%ebp),%eax
c0105527:	8d 0c 85 00 00 00 00 	lea    0x0(,%eax,4),%ecx
c010552e:	8b 45 f4             	mov    -0xc(%ebp),%eax
c0105531:	01 c8                	add    %ecx,%eax
c0105533:	8b 00                	mov    (%eax),%eax
c0105535:	39 c2                	cmp    %eax,%edx
c0105537:	74 22                	je     c010555b <display_buffer+0x76>
c0105539:	8b 45 fc             	mov    -0x4(%ebp),%eax
c010553c:	8d 14 85 00 00 00 00 	lea    0x0(,%eax,4),%edx
c0105543:	8b 45 f0             	mov    -0x10(%ebp),%eax
c0105546:	01 c2                	add    %eax,%edx
c0105548:	8b 45 fc             	mov    -0x4(%ebp),%eax
c010554b:	8d 0c 85 00 00 00 00 	lea    0x0(,%eax,4),%ecx
c0105552:	8b 45 f8             	mov    -0x8(%ebp),%eax
c0105555:	01 c8                	add    %ecx,%eax
c0105557:	8b 00                	mov    (%eax),%eax
c0105559:	89 02                	mov    %eax,(%edx)
c010555b:	83 45 fc 01          	addl   $0x1,-0x4(%ebp)
c010555f:	81 7d fc 7f 3e 00 00 	cmpl   $0x3e7f,-0x4(%ebp)
c0105566:	7e ab                	jle    c0105513 <display_buffer+0x2e>
c0105568:	c9                   	leave  
c0105569:	c3                   	ret    

c010556a <draw_character>:
c010556a:	55                   	push   %ebp
c010556b:	89 e5                	mov    %esp,%ebp
c010556d:	83 ec 28             	sub    $0x28,%esp
c0105570:	8b 45 08             	mov    0x8(%ebp),%eax
c0105573:	88 45 e4             	mov    %al,-0x1c(%ebp)
c0105576:	80 7d e4 00          	cmpb   $0x0,-0x1c(%ebp)
c010557a:	79 12                	jns    c010558e <draw_character+0x24>
c010557c:	83 ec 08             	sub    $0x8,%esp
c010557f:	6a 48                	push   $0x48
c0105581:	68 12 73 10 c0       	push   $0xc0107312
c0105586:	e8 e1 d4 ff ff       	call   c0102a6c <abort>
c010558b:	83 c4 10             	add    $0x10,%esp
c010558e:	0f be 45 e4          	movsbl -0x1c(%ebp),%eax
c0105592:	c1 e0 03             	shl    $0x3,%eax
c0105595:	05 00 c0 10 c0       	add    $0xc010c000,%eax
c010559a:	89 45 ec             	mov    %eax,-0x14(%ebp)
c010559d:	c7 45 f4 00 00 00 00 	movl   $0x0,-0xc(%ebp)
c01055a4:	eb 55                	jmp    c01055fb <draw_character+0x91>
c01055a6:	c7 45 f0 00 00 00 00 	movl   $0x0,-0x10(%ebp)
c01055ad:	eb 42                	jmp    c01055f1 <draw_character+0x87>
c01055af:	8b 55 f4             	mov    -0xc(%ebp),%edx
c01055b2:	8b 45 ec             	mov    -0x14(%ebp),%eax
c01055b5:	01 d0                	add    %edx,%eax
c01055b7:	0f b6 00             	movzbl (%eax),%eax
c01055ba:	0f be d0             	movsbl %al,%edx
c01055bd:	8b 45 f0             	mov    -0x10(%ebp),%eax
c01055c0:	89 c1                	mov    %eax,%ecx
c01055c2:	d3 fa                	sar    %cl,%edx
c01055c4:	89 d0                	mov    %edx,%eax
c01055c6:	83 e0 01             	and    $0x1,%eax
c01055c9:	85 c0                	test   %eax,%eax
c01055cb:	74 20                	je     c01055ed <draw_character+0x83>
c01055cd:	8b 55 10             	mov    0x10(%ebp),%edx
c01055d0:	8b 45 f0             	mov    -0x10(%ebp),%eax
c01055d3:	01 c2                	add    %eax,%edx
c01055d5:	8b 4d 0c             	mov    0xc(%ebp),%ecx
c01055d8:	8b 45 f4             	mov    -0xc(%ebp),%eax
c01055db:	01 c8                	add    %ecx,%eax
c01055dd:	83 ec 04             	sub    $0x4,%esp
c01055e0:	ff 75 14             	pushl  0x14(%ebp)
c01055e3:	52                   	push   %edx
c01055e4:	50                   	push   %eax
c01055e5:	e8 91 fe ff ff       	call   c010547b <draw_pixel>
c01055ea:	83 c4 10             	add    $0x10,%esp
c01055ed:	83 45 f0 01          	addl   $0x1,-0x10(%ebp)
c01055f1:	83 7d f0 07          	cmpl   $0x7,-0x10(%ebp)
c01055f5:	7e b8                	jle    c01055af <draw_character+0x45>
c01055f7:	83 45 f4 01          	addl   $0x1,-0xc(%ebp)
c01055fb:	83 7d f4 07          	cmpl   $0x7,-0xc(%ebp)
c01055ff:	7e a5                	jle    c01055a6 <draw_character+0x3c>
c0105601:	c9                   	leave  
c0105602:	c3                   	ret    

c0105603 <draw_string>:
c0105603:	55                   	push   %ebp
c0105604:	89 e5                	mov    %esp,%ebp
c0105606:	83 ec 08             	sub    $0x8,%esp
c0105609:	eb 3f                	jmp    c010564a <draw_string+0x47>
c010560b:	8b 45 08             	mov    0x8(%ebp),%eax
c010560e:	8d 50 01             	lea    0x1(%eax),%edx
c0105611:	89 55 08             	mov    %edx,0x8(%ebp)
c0105614:	0f b6 00             	movzbl (%eax),%eax
c0105617:	0f be c0             	movsbl %al,%eax
c010561a:	ff 75 14             	pushl  0x14(%ebp)
c010561d:	ff 75 10             	pushl  0x10(%ebp)
c0105620:	ff 75 0c             	pushl  0xc(%ebp)
c0105623:	50                   	push   %eax
c0105624:	e8 41 ff ff ff       	call   c010556a <draw_character>
c0105629:	83 c4 10             	add    $0x10,%esp
c010562c:	8b 45 10             	mov    0x10(%ebp),%eax
c010562f:	83 c0 08             	add    $0x8,%eax
c0105632:	3d 3f 01 00 00       	cmp    $0x13f,%eax
c0105637:	7e 0d                	jle    c0105646 <draw_string+0x43>
c0105639:	83 45 0c 08          	addl   $0x8,0xc(%ebp)
c010563d:	c7 45 10 00 00 00 00 	movl   $0x0,0x10(%ebp)
c0105644:	eb 04                	jmp    c010564a <draw_string+0x47>
c0105646:	83 45 10 08          	addl   $0x8,0x10(%ebp)
c010564a:	8b 45 08             	mov    0x8(%ebp),%eax
c010564d:	0f b6 00             	movzbl (%eax),%eax
c0105650:	84 c0                	test   %al,%al
c0105652:	75 b7                	jne    c010560b <draw_string+0x8>
c0105654:	c9                   	leave  
c0105655:	c3                   	ret    

c0105656 <in_byte>:
c0105656:	55                   	push   %ebp
c0105657:	89 e5                	mov    %esp,%ebp
c0105659:	83 ec 14             	sub    $0x14,%esp
c010565c:	8b 45 08             	mov    0x8(%ebp),%eax
c010565f:	66 89 45 ec          	mov    %ax,-0x14(%ebp)
c0105663:	0f b7 45 ec          	movzwl -0x14(%ebp),%eax
c0105667:	89 c2                	mov    %eax,%edx
c0105669:	ec                   	in     (%dx),%al
c010566a:	88 45 ff             	mov    %al,-0x1(%ebp)
c010566d:	0f b6 45 ff          	movzbl -0x1(%ebp),%eax
c0105671:	c9                   	leave  
c0105672:	c3                   	ret    

c0105673 <out_byte>:
c0105673:	55                   	push   %ebp
c0105674:	89 e5                	mov    %esp,%ebp
c0105676:	83 ec 08             	sub    $0x8,%esp
c0105679:	8b 55 08             	mov    0x8(%ebp),%edx
c010567c:	8b 45 0c             	mov    0xc(%ebp),%eax
c010567f:	66 89 55 fc          	mov    %dx,-0x4(%ebp)
c0105683:	88 45 f8             	mov    %al,-0x8(%ebp)
c0105686:	0f b6 45 f8          	movzbl -0x8(%ebp),%eax
c010568a:	0f b7 55 fc          	movzwl -0x4(%ebp),%edx
c010568e:	ee                   	out    %al,(%dx)
c010568f:	c9                   	leave  
c0105690:	c3                   	ret    

c0105691 <write_palette>:
c0105691:	55                   	push   %ebp
c0105692:	89 e5                	mov    %esp,%ebp
c0105694:	83 ec 10             	sub    $0x10,%esp
c0105697:	6a 00                	push   $0x0
c0105699:	68 c8 03 00 00       	push   $0x3c8
c010569e:	e8 d0 ff ff ff       	call   c0105673 <out_byte>
c01056a3:	83 c4 08             	add    $0x8,%esp
c01056a6:	c7 45 fc 00 00 00 00 	movl   $0x0,-0x4(%ebp)
c01056ad:	eb 79                	jmp    c0105728 <write_palette+0x97>
c01056af:	8b 55 fc             	mov    -0x4(%ebp),%edx
c01056b2:	89 d0                	mov    %edx,%eax
c01056b4:	01 c0                	add    %eax,%eax
c01056b6:	01 d0                	add    %edx,%eax
c01056b8:	05 40 c4 10 c0       	add    $0xc010c440,%eax
c01056bd:	0f b6 00             	movzbl (%eax),%eax
c01056c0:	c0 e8 02             	shr    $0x2,%al
c01056c3:	0f be c0             	movsbl %al,%eax
c01056c6:	50                   	push   %eax
c01056c7:	68 c9 03 00 00       	push   $0x3c9
c01056cc:	e8 a2 ff ff ff       	call   c0105673 <out_byte>
c01056d1:	83 c4 08             	add    $0x8,%esp
c01056d4:	8b 55 fc             	mov    -0x4(%ebp),%edx
c01056d7:	89 d0                	mov    %edx,%eax
c01056d9:	01 c0                	add    %eax,%eax
c01056db:	01 d0                	add    %edx,%eax
c01056dd:	83 c0 01             	add    $0x1,%eax
c01056e0:	05 40 c4 10 c0       	add    $0xc010c440,%eax
c01056e5:	0f b6 00             	movzbl (%eax),%eax
c01056e8:	c0 e8 02             	shr    $0x2,%al
c01056eb:	0f be c0             	movsbl %al,%eax
c01056ee:	50                   	push   %eax
c01056ef:	68 c9 03 00 00       	push   $0x3c9
c01056f4:	e8 7a ff ff ff       	call   c0105673 <out_byte>
c01056f9:	83 c4 08             	add    $0x8,%esp
c01056fc:	8b 55 fc             	mov    -0x4(%ebp),%edx
c01056ff:	89 d0                	mov    %edx,%eax
c0105701:	01 c0                	add    %eax,%eax
c0105703:	01 d0                	add    %edx,%eax
c0105705:	83 c0 02             	add    $0x2,%eax
c0105708:	05 40 c4 10 c0       	add    $0xc010c440,%eax
c010570d:	0f b6 00             	movzbl (%eax),%eax
c0105710:	c0 e8 02             	shr    $0x2,%al
c0105713:	0f be c0             	movsbl %al,%eax
c0105716:	50                   	push   %eax
c0105717:	68 c9 03 00 00       	push   $0x3c9
c010571c:	e8 52 ff ff ff       	call   c0105673 <out_byte>
c0105721:	83 c4 08             	add    $0x8,%esp
c0105724:	83 45 fc 01          	addl   $0x1,-0x4(%ebp)
c0105728:	81 7d fc ff 00 00 00 	cmpl   $0xff,-0x4(%ebp)
c010572f:	0f 8e 7a ff ff ff    	jle    c01056af <write_palette+0x1e>
c0105735:	c9                   	leave  
c0105736:	c3                   	ret    

c0105737 <read_palette>:
c0105737:	55                   	push   %ebp
c0105738:	89 e5                	mov    %esp,%ebp
c010573a:	83 ec 18             	sub    $0x18,%esp
c010573d:	6a 00                	push   $0x0
c010573f:	68 c7 03 00 00       	push   $0x3c7
c0105744:	e8 2a ff ff ff       	call   c0105673 <out_byte>
c0105749:	83 c4 08             	add    $0x8,%esp
c010574c:	c7 45 f4 00 00 00 00 	movl   $0x0,-0xc(%ebp)
c0105753:	eb 50                	jmp    c01057a5 <read_palette+0x6e>
c0105755:	68 c9 03 00 00       	push   $0x3c9
c010575a:	e8 f7 fe ff ff       	call   c0105656 <in_byte>
c010575f:	83 c4 04             	add    $0x4,%esp
c0105762:	88 45 f3             	mov    %al,-0xd(%ebp)
c0105765:	68 c9 03 00 00       	push   $0x3c9
c010576a:	e8 e7 fe ff ff       	call   c0105656 <in_byte>
c010576f:	83 c4 04             	add    $0x4,%esp
c0105772:	88 45 f2             	mov    %al,-0xe(%ebp)
c0105775:	68 c9 03 00 00       	push   $0x3c9
c010577a:	e8 d7 fe ff ff       	call   c0105656 <in_byte>
c010577f:	83 c4 04             	add    $0x4,%esp
c0105782:	88 45 f1             	mov    %al,-0xf(%ebp)
c0105785:	0f b6 4d f1          	movzbl -0xf(%ebp),%ecx
c0105789:	0f b6 55 f2          	movzbl -0xe(%ebp),%edx
c010578d:	0f b6 45 f3          	movzbl -0xd(%ebp),%eax
c0105791:	51                   	push   %ecx
c0105792:	52                   	push   %edx
c0105793:	50                   	push   %eax
c0105794:	68 2c 73 10 c0       	push   $0xc010732c
c0105799:	e8 e9 d1 ff ff       	call   c0102987 <printk>
c010579e:	83 c4 10             	add    $0x10,%esp
c01057a1:	83 45 f4 01          	addl   $0x1,-0xc(%ebp)
c01057a5:	81 7d f4 ff 00 00 00 	cmpl   $0xff,-0xc(%ebp)
c01057ac:	7e a7                	jle    c0105755 <read_palette+0x1e>
c01057ae:	c9                   	leave  
c01057af:	c3                   	ret    

c01057b0 <ide_wait_ready>:
c01057b0:	55                   	push   %ebp
c01057b1:	89 e5                	mov    %esp,%ebp
c01057b3:	83 ec 14             	sub    $0x14,%esp
c01057b6:	8b 45 08             	mov    0x8(%ebp),%eax
c01057b9:	88 45 ec             	mov    %al,-0x14(%ebp)
c01057bc:	90                   	nop
c01057bd:	c7 45 f8 f7 01 00 00 	movl   $0x1f7,-0x8(%ebp)
c01057c4:	8b 45 f8             	mov    -0x8(%ebp),%eax
c01057c7:	89 c2                	mov    %eax,%edx
c01057c9:	ec                   	in     (%dx),%al
c01057ca:	88 45 f7             	mov    %al,-0x9(%ebp)
c01057cd:	0f b6 45 f7          	movzbl -0x9(%ebp),%eax
c01057d1:	0f b6 c0             	movzbl %al,%eax
c01057d4:	89 45 fc             	mov    %eax,-0x4(%ebp)
c01057d7:	8b 45 fc             	mov    -0x4(%ebp),%eax
c01057da:	25 c0 00 00 00       	and    $0xc0,%eax
c01057df:	83 f8 40             	cmp    $0x40,%eax
c01057e2:	75 d9                	jne    c01057bd <ide_wait_ready+0xd>
c01057e4:	80 7d ec 00          	cmpb   $0x0,-0x14(%ebp)
c01057e8:	74 11                	je     c01057fb <ide_wait_ready+0x4b>
c01057ea:	8b 45 fc             	mov    -0x4(%ebp),%eax
c01057ed:	83 e0 21             	and    $0x21,%eax
c01057f0:	85 c0                	test   %eax,%eax
c01057f2:	74 07                	je     c01057fb <ide_wait_ready+0x4b>
c01057f4:	b8 ff ff ff ff       	mov    $0xffffffff,%eax
c01057f9:	eb 05                	jmp    c0105800 <ide_wait_ready+0x50>
c01057fb:	b8 00 00 00 00       	mov    $0x0,%eax
c0105800:	c9                   	leave  
c0105801:	c3                   	ret    

c0105802 <ide_probe_disk1>:
c0105802:	55                   	push   %ebp
c0105803:	89 e5                	mov    %esp,%ebp
c0105805:	83 ec 28             	sub    $0x28,%esp
c0105808:	6a 00                	push   $0x0
c010580a:	e8 a1 ff ff ff       	call   c01057b0 <ide_wait_ready>
c010580f:	83 c4 04             	add    $0x4,%esp
c0105812:	c7 45 ec f6 01 00 00 	movl   $0x1f6,-0x14(%ebp)
c0105819:	c6 45 eb f0          	movb   $0xf0,-0x15(%ebp)
c010581d:	0f b6 45 eb          	movzbl -0x15(%ebp),%eax
c0105821:	8b 55 ec             	mov    -0x14(%ebp),%edx
c0105824:	ee                   	out    %al,(%dx)
c0105825:	c7 45 f4 00 00 00 00 	movl   $0x0,-0xc(%ebp)
c010582c:	eb 04                	jmp    c0105832 <ide_probe_disk1+0x30>
c010582e:	83 45 f4 01          	addl   $0x1,-0xc(%ebp)
c0105832:	81 7d f4 e7 03 00 00 	cmpl   $0x3e7,-0xc(%ebp)
c0105839:	7f 26                	jg     c0105861 <ide_probe_disk1+0x5f>
c010583b:	c7 45 e4 f7 01 00 00 	movl   $0x1f7,-0x1c(%ebp)
c0105842:	8b 45 e4             	mov    -0x1c(%ebp),%eax
c0105845:	89 c2                	mov    %eax,%edx
c0105847:	ec                   	in     (%dx),%al
c0105848:	88 45 e3             	mov    %al,-0x1d(%ebp)
c010584b:	0f b6 45 e3          	movzbl -0x1d(%ebp),%eax
c010584f:	0f b6 c0             	movzbl %al,%eax
c0105852:	89 45 f0             	mov    %eax,-0x10(%ebp)
c0105855:	8b 45 f0             	mov    -0x10(%ebp),%eax
c0105858:	25 a1 00 00 00       	and    $0xa1,%eax
c010585d:	85 c0                	test   %eax,%eax
c010585f:	75 cd                	jne    c010582e <ide_probe_disk1+0x2c>
c0105861:	c7 45 dc f6 01 00 00 	movl   $0x1f6,-0x24(%ebp)
c0105868:	c6 45 db e0          	movb   $0xe0,-0x25(%ebp)
c010586c:	0f b6 45 db          	movzbl -0x25(%ebp),%eax
c0105870:	8b 55 dc             	mov    -0x24(%ebp),%edx
c0105873:	ee                   	out    %al,(%dx)
c0105874:	81 7d f4 e7 03 00 00 	cmpl   $0x3e7,-0xc(%ebp)
c010587b:	0f 9e c0             	setle  %al
c010587e:	0f b6 c0             	movzbl %al,%eax
c0105881:	83 ec 08             	sub    $0x8,%esp
c0105884:	50                   	push   %eax
c0105885:	68 44 73 10 c0       	push   $0xc0107344
c010588a:	e8 f8 d0 ff ff       	call   c0102987 <printk>
c010588f:	83 c4 10             	add    $0x10,%esp
c0105892:	81 7d f4 e7 03 00 00 	cmpl   $0x3e7,-0xc(%ebp)
c0105899:	0f 9e c0             	setle  %al
c010589c:	c9                   	leave  
c010589d:	c3                   	ret    

c010589e <ide_set_disk>:
c010589e:	55                   	push   %ebp
c010589f:	89 e5                	mov    %esp,%ebp
c01058a1:	83 ec 08             	sub    $0x8,%esp
c01058a4:	83 7d 08 00          	cmpl   $0x0,0x8(%ebp)
c01058a8:	74 18                	je     c01058c2 <ide_set_disk+0x24>
c01058aa:	83 7d 08 01          	cmpl   $0x1,0x8(%ebp)
c01058ae:	74 12                	je     c01058c2 <ide_set_disk+0x24>
c01058b0:	83 ec 0c             	sub    $0xc,%esp
c01058b3:	68 5b 73 10 c0       	push   $0xc010735b
c01058b8:	e8 ca d0 ff ff       	call   c0102987 <printk>
c01058bd:	83 c4 10             	add    $0x10,%esp
c01058c0:	eb fe                	jmp    c01058c0 <ide_set_disk+0x22>
c01058c2:	8b 45 08             	mov    0x8(%ebp),%eax
c01058c5:	a3 40 c7 10 c0       	mov    %eax,0xc010c740
c01058ca:	c9                   	leave  
c01058cb:	c3                   	ret    

c01058cc <ide_read>:
c01058cc:	55                   	push   %ebp
c01058cd:	89 e5                	mov    %esp,%ebp
c01058cf:	57                   	push   %edi
c01058d0:	53                   	push   %ebx
c01058d1:	83 ec 40             	sub    $0x40,%esp
c01058d4:	81 7d 10 00 01 00 00 	cmpl   $0x100,0x10(%ebp)
c01058db:	76 12                	jbe    c01058ef <ide_read+0x23>
c01058dd:	83 ec 08             	sub    $0x8,%esp
c01058e0:	6a 47                	push   $0x47
c01058e2:	68 6b 73 10 c0       	push   $0xc010736b
c01058e7:	e8 80 d1 ff ff       	call   c0102a6c <abort>
c01058ec:	83 c4 10             	add    $0x10,%esp
c01058ef:	83 ec 0c             	sub    $0xc,%esp
c01058f2:	6a 00                	push   $0x0
c01058f4:	e8 b7 fe ff ff       	call   c01057b0 <ide_wait_ready>
c01058f9:	83 c4 10             	add    $0x10,%esp
c01058fc:	8b 45 10             	mov    0x10(%ebp),%eax
c01058ff:	0f b6 c0             	movzbl %al,%eax
c0105902:	c7 45 f0 f2 01 00 00 	movl   $0x1f2,-0x10(%ebp)
c0105909:	88 45 ef             	mov    %al,-0x11(%ebp)
c010590c:	0f b6 45 ef          	movzbl -0x11(%ebp),%eax
c0105910:	8b 55 f0             	mov    -0x10(%ebp),%edx
c0105913:	ee                   	out    %al,(%dx)
c0105914:	8b 45 08             	mov    0x8(%ebp),%eax
c0105917:	0f b6 c0             	movzbl %al,%eax
c010591a:	c7 45 e8 f3 01 00 00 	movl   $0x1f3,-0x18(%ebp)
c0105921:	88 45 e7             	mov    %al,-0x19(%ebp)
c0105924:	0f b6 45 e7          	movzbl -0x19(%ebp),%eax
c0105928:	8b 55 e8             	mov    -0x18(%ebp),%edx
c010592b:	ee                   	out    %al,(%dx)
c010592c:	8b 45 08             	mov    0x8(%ebp),%eax
c010592f:	c1 e8 08             	shr    $0x8,%eax
c0105932:	0f b6 c0             	movzbl %al,%eax
c0105935:	c7 45 e0 f4 01 00 00 	movl   $0x1f4,-0x20(%ebp)
c010593c:	88 45 df             	mov    %al,-0x21(%ebp)
c010593f:	0f b6 45 df          	movzbl -0x21(%ebp),%eax
c0105943:	8b 55 e0             	mov    -0x20(%ebp),%edx
c0105946:	ee                   	out    %al,(%dx)
c0105947:	8b 45 08             	mov    0x8(%ebp),%eax
c010594a:	c1 e8 10             	shr    $0x10,%eax
c010594d:	0f b6 c0             	movzbl %al,%eax
c0105950:	c7 45 d8 f5 01 00 00 	movl   $0x1f5,-0x28(%ebp)
c0105957:	88 45 d7             	mov    %al,-0x29(%ebp)
c010595a:	0f b6 45 d7          	movzbl -0x29(%ebp),%eax
c010595e:	8b 55 d8             	mov    -0x28(%ebp),%edx
c0105961:	ee                   	out    %al,(%dx)
c0105962:	a1 40 c7 10 c0       	mov    0xc010c740,%eax
c0105967:	83 e0 01             	and    $0x1,%eax
c010596a:	c1 e0 04             	shl    $0x4,%eax
c010596d:	89 c2                	mov    %eax,%edx
c010596f:	8b 45 08             	mov    0x8(%ebp),%eax
c0105972:	c1 e8 18             	shr    $0x18,%eax
c0105975:	83 e0 0f             	and    $0xf,%eax
c0105978:	09 d0                	or     %edx,%eax
c010597a:	83 c8 e0             	or     $0xffffffe0,%eax
c010597d:	0f b6 c0             	movzbl %al,%eax
c0105980:	c7 45 d0 f6 01 00 00 	movl   $0x1f6,-0x30(%ebp)
c0105987:	88 45 cf             	mov    %al,-0x31(%ebp)
c010598a:	0f b6 45 cf          	movzbl -0x31(%ebp),%eax
c010598e:	8b 55 d0             	mov    -0x30(%ebp),%edx
c0105991:	ee                   	out    %al,(%dx)
c0105992:	c7 45 c8 f7 01 00 00 	movl   $0x1f7,-0x38(%ebp)
c0105999:	c6 45 c7 20          	movb   $0x20,-0x39(%ebp)
c010599d:	0f b6 45 c7          	movzbl -0x39(%ebp),%eax
c01059a1:	8b 55 c8             	mov    -0x38(%ebp),%edx
c01059a4:	ee                   	out    %al,(%dx)
c01059a5:	eb 56                	jmp    c01059fd <ide_read+0x131>
c01059a7:	83 ec 0c             	sub    $0xc,%esp
c01059aa:	6a 01                	push   $0x1
c01059ac:	e8 ff fd ff ff       	call   c01057b0 <ide_wait_ready>
c01059b1:	83 c4 10             	add    $0x10,%esp
c01059b4:	89 45 f4             	mov    %eax,-0xc(%ebp)
c01059b7:	83 7d f4 00          	cmpl   $0x0,-0xc(%ebp)
c01059bb:	79 05                	jns    c01059c2 <ide_read+0xf6>
c01059bd:	8b 45 f4             	mov    -0xc(%ebp),%eax
c01059c0:	eb 46                	jmp    c0105a08 <ide_read+0x13c>
c01059c2:	c7 45 c0 f0 01 00 00 	movl   $0x1f0,-0x40(%ebp)
c01059c9:	8b 45 0c             	mov    0xc(%ebp),%eax
c01059cc:	89 45 bc             	mov    %eax,-0x44(%ebp)
c01059cf:	c7 45 b8 80 00 00 00 	movl   $0x80,-0x48(%ebp)
c01059d6:	8b 55 c0             	mov    -0x40(%ebp),%edx
c01059d9:	8b 4d bc             	mov    -0x44(%ebp),%ecx
c01059dc:	8b 45 b8             	mov    -0x48(%ebp),%eax
c01059df:	89 cb                	mov    %ecx,%ebx
c01059e1:	89 df                	mov    %ebx,%edi
c01059e3:	89 c1                	mov    %eax,%ecx
c01059e5:	fc                   	cld    
c01059e6:	f2 6d                	repnz insl (%dx),%es:(%edi)
c01059e8:	89 c8                	mov    %ecx,%eax
c01059ea:	89 fb                	mov    %edi,%ebx
c01059ec:	89 5d bc             	mov    %ebx,-0x44(%ebp)
c01059ef:	89 45 b8             	mov    %eax,-0x48(%ebp)
c01059f2:	83 6d 10 01          	subl   $0x1,0x10(%ebp)
c01059f6:	81 45 0c 00 02 00 00 	addl   $0x200,0xc(%ebp)
c01059fd:	83 7d 10 00          	cmpl   $0x0,0x10(%ebp)
c0105a01:	75 a4                	jne    c01059a7 <ide_read+0xdb>
c0105a03:	b8 00 00 00 00       	mov    $0x0,%eax
c0105a08:	8d 65 f8             	lea    -0x8(%ebp),%esp
c0105a0b:	5b                   	pop    %ebx
c0105a0c:	5f                   	pop    %edi
c0105a0d:	5d                   	pop    %ebp
c0105a0e:	c3                   	ret    

c0105a0f <ide_write>:
c0105a0f:	55                   	push   %ebp
c0105a10:	89 e5                	mov    %esp,%ebp
c0105a12:	56                   	push   %esi
c0105a13:	53                   	push   %ebx
c0105a14:	83 ec 40             	sub    $0x40,%esp
c0105a17:	81 7d 10 00 01 00 00 	cmpl   $0x100,0x10(%ebp)
c0105a1e:	76 12                	jbe    c0105a32 <ide_write+0x23>
c0105a20:	83 ec 08             	sub    $0x8,%esp
c0105a23:	6a 60                	push   $0x60
c0105a25:	68 6b 73 10 c0       	push   $0xc010736b
c0105a2a:	e8 3d d0 ff ff       	call   c0102a6c <abort>
c0105a2f:	83 c4 10             	add    $0x10,%esp
c0105a32:	83 ec 0c             	sub    $0xc,%esp
c0105a35:	6a 00                	push   $0x0
c0105a37:	e8 74 fd ff ff       	call   c01057b0 <ide_wait_ready>
c0105a3c:	83 c4 10             	add    $0x10,%esp
c0105a3f:	8b 45 10             	mov    0x10(%ebp),%eax
c0105a42:	0f b6 c0             	movzbl %al,%eax
c0105a45:	c7 45 f0 f2 01 00 00 	movl   $0x1f2,-0x10(%ebp)
c0105a4c:	88 45 ef             	mov    %al,-0x11(%ebp)
c0105a4f:	0f b6 45 ef          	movzbl -0x11(%ebp),%eax
c0105a53:	8b 55 f0             	mov    -0x10(%ebp),%edx
c0105a56:	ee                   	out    %al,(%dx)
c0105a57:	8b 45 08             	mov    0x8(%ebp),%eax
c0105a5a:	0f b6 c0             	movzbl %al,%eax
c0105a5d:	c7 45 e8 f3 01 00 00 	movl   $0x1f3,-0x18(%ebp)
c0105a64:	88 45 e7             	mov    %al,-0x19(%ebp)
c0105a67:	0f b6 45 e7          	movzbl -0x19(%ebp),%eax
c0105a6b:	8b 55 e8             	mov    -0x18(%ebp),%edx
c0105a6e:	ee                   	out    %al,(%dx)
c0105a6f:	8b 45 08             	mov    0x8(%ebp),%eax
c0105a72:	c1 e8 08             	shr    $0x8,%eax
c0105a75:	0f b6 c0             	movzbl %al,%eax
c0105a78:	c7 45 e0 f4 01 00 00 	movl   $0x1f4,-0x20(%ebp)
c0105a7f:	88 45 df             	mov    %al,-0x21(%ebp)
c0105a82:	0f b6 45 df          	movzbl -0x21(%ebp),%eax
c0105a86:	8b 55 e0             	mov    -0x20(%ebp),%edx
c0105a89:	ee                   	out    %al,(%dx)
c0105a8a:	8b 45 08             	mov    0x8(%ebp),%eax
c0105a8d:	c1 e8 10             	shr    $0x10,%eax
c0105a90:	0f b6 c0             	movzbl %al,%eax
c0105a93:	c7 45 d8 f5 01 00 00 	movl   $0x1f5,-0x28(%ebp)
c0105a9a:	88 45 d7             	mov    %al,-0x29(%ebp)
c0105a9d:	0f b6 45 d7          	movzbl -0x29(%ebp),%eax
c0105aa1:	8b 55 d8             	mov    -0x28(%ebp),%edx
c0105aa4:	ee                   	out    %al,(%dx)
c0105aa5:	a1 40 c7 10 c0       	mov    0xc010c740,%eax
c0105aaa:	83 e0 01             	and    $0x1,%eax
c0105aad:	c1 e0 04             	shl    $0x4,%eax
c0105ab0:	89 c2                	mov    %eax,%edx
c0105ab2:	8b 45 08             	mov    0x8(%ebp),%eax
c0105ab5:	c1 e8 18             	shr    $0x18,%eax
c0105ab8:	83 e0 0f             	and    $0xf,%eax
c0105abb:	09 d0                	or     %edx,%eax
c0105abd:	83 c8 e0             	or     $0xffffffe0,%eax
c0105ac0:	0f b6 c0             	movzbl %al,%eax
c0105ac3:	c7 45 d0 f6 01 00 00 	movl   $0x1f6,-0x30(%ebp)
c0105aca:	88 45 cf             	mov    %al,-0x31(%ebp)
c0105acd:	0f b6 45 cf          	movzbl -0x31(%ebp),%eax
c0105ad1:	8b 55 d0             	mov    -0x30(%ebp),%edx
c0105ad4:	ee                   	out    %al,(%dx)
c0105ad5:	c7 45 c8 f7 01 00 00 	movl   $0x1f7,-0x38(%ebp)
c0105adc:	c6 45 c7 30          	movb   $0x30,-0x39(%ebp)
c0105ae0:	0f b6 45 c7          	movzbl -0x39(%ebp),%eax
c0105ae4:	8b 55 c8             	mov    -0x38(%ebp),%edx
c0105ae7:	ee                   	out    %al,(%dx)
c0105ae8:	eb 56                	jmp    c0105b40 <ide_write+0x131>
c0105aea:	83 ec 0c             	sub    $0xc,%esp
c0105aed:	6a 01                	push   $0x1
c0105aef:	e8 bc fc ff ff       	call   c01057b0 <ide_wait_ready>
c0105af4:	83 c4 10             	add    $0x10,%esp
c0105af7:	89 45 f4             	mov    %eax,-0xc(%ebp)
c0105afa:	83 7d f4 00          	cmpl   $0x0,-0xc(%ebp)
c0105afe:	79 05                	jns    c0105b05 <ide_write+0xf6>
c0105b00:	8b 45 f4             	mov    -0xc(%ebp),%eax
c0105b03:	eb 46                	jmp    c0105b4b <ide_write+0x13c>
c0105b05:	c7 45 c0 f0 01 00 00 	movl   $0x1f0,-0x40(%ebp)
c0105b0c:	8b 45 0c             	mov    0xc(%ebp),%eax
c0105b0f:	89 45 bc             	mov    %eax,-0x44(%ebp)
c0105b12:	c7 45 b8 80 00 00 00 	movl   $0x80,-0x48(%ebp)
c0105b19:	8b 55 c0             	mov    -0x40(%ebp),%edx
c0105b1c:	8b 4d bc             	mov    -0x44(%ebp),%ecx
c0105b1f:	8b 45 b8             	mov    -0x48(%ebp),%eax
c0105b22:	89 cb                	mov    %ecx,%ebx
c0105b24:	89 de                	mov    %ebx,%esi
c0105b26:	89 c1                	mov    %eax,%ecx
c0105b28:	fc                   	cld    
c0105b29:	f2 6f                	repnz outsl %ds:(%esi),(%dx)
c0105b2b:	89 c8                	mov    %ecx,%eax
c0105b2d:	89 f3                	mov    %esi,%ebx
c0105b2f:	89 5d bc             	mov    %ebx,-0x44(%ebp)
c0105b32:	89 45 b8             	mov    %eax,-0x48(%ebp)
c0105b35:	83 6d 10 01          	subl   $0x1,0x10(%ebp)
c0105b39:	81 45 0c 00 02 00 00 	addl   $0x200,0xc(%ebp)
c0105b40:	83 7d 10 00          	cmpl   $0x0,0x10(%ebp)
c0105b44:	75 a4                	jne    c0105aea <ide_write+0xdb>
c0105b46:	b8 00 00 00 00       	mov    $0x0,%eax
c0105b4b:	8d 65 f8             	lea    -0x8(%ebp),%esp
c0105b4e:	5b                   	pop    %ebx
c0105b4f:	5e                   	pop    %esi
c0105b50:	5d                   	pop    %ebp
c0105b51:	c3                   	ret    

c0105b52 <out_byte>:
c0105b52:	55                   	push   %ebp
c0105b53:	89 e5                	mov    %esp,%ebp
c0105b55:	83 ec 08             	sub    $0x8,%esp
c0105b58:	8b 55 08             	mov    0x8(%ebp),%edx
c0105b5b:	8b 45 0c             	mov    0xc(%ebp),%eax
c0105b5e:	66 89 55 fc          	mov    %dx,-0x4(%ebp)
c0105b62:	88 45 f8             	mov    %al,-0x8(%ebp)
c0105b65:	0f b6 45 f8          	movzbl -0x8(%ebp),%eax
c0105b69:	0f b7 55 fc          	movzwl -0x4(%ebp),%edx
c0105b6d:	ee                   	out    %al,(%dx)
c0105b6e:	c9                   	leave  
c0105b6f:	c3                   	ret    

c0105b70 <out_long>:
c0105b70:	55                   	push   %ebp
c0105b71:	89 e5                	mov    %esp,%ebp
c0105b73:	83 ec 04             	sub    $0x4,%esp
c0105b76:	8b 45 08             	mov    0x8(%ebp),%eax
c0105b79:	66 89 45 fc          	mov    %ax,-0x4(%ebp)
c0105b7d:	8b 45 0c             	mov    0xc(%ebp),%eax
c0105b80:	0f b7 55 fc          	movzwl -0x4(%ebp),%edx
c0105b84:	ef                   	out    %eax,(%dx)
c0105b85:	c9                   	leave  
c0105b86:	c3                   	ret    

c0105b87 <writesect>:
c0105b87:	55                   	push   %ebp
c0105b88:	89 e5                	mov    %esp,%ebp
c0105b8a:	83 ec 18             	sub    $0x18,%esp
c0105b8d:	e8 60 e2 ff ff       	call   c0103df2 <waitdisk>
c0105b92:	83 ec 08             	sub    $0x8,%esp
c0105b95:	6a 01                	push   $0x1
c0105b97:	68 f2 01 00 00       	push   $0x1f2
c0105b9c:	e8 b1 ff ff ff       	call   c0105b52 <out_byte>
c0105ba1:	83 c4 10             	add    $0x10,%esp
c0105ba4:	8b 45 0c             	mov    0xc(%ebp),%eax
c0105ba7:	0f be c0             	movsbl %al,%eax
c0105baa:	83 ec 08             	sub    $0x8,%esp
c0105bad:	50                   	push   %eax
c0105bae:	68 f3 01 00 00       	push   $0x1f3
c0105bb3:	e8 9a ff ff ff       	call   c0105b52 <out_byte>
c0105bb8:	83 c4 10             	add    $0x10,%esp
c0105bbb:	8b 45 0c             	mov    0xc(%ebp),%eax
c0105bbe:	c1 f8 08             	sar    $0x8,%eax
c0105bc1:	0f be c0             	movsbl %al,%eax
c0105bc4:	83 ec 08             	sub    $0x8,%esp
c0105bc7:	50                   	push   %eax
c0105bc8:	68 f4 01 00 00       	push   $0x1f4
c0105bcd:	e8 80 ff ff ff       	call   c0105b52 <out_byte>
c0105bd2:	83 c4 10             	add    $0x10,%esp
c0105bd5:	8b 45 0c             	mov    0xc(%ebp),%eax
c0105bd8:	c1 f8 10             	sar    $0x10,%eax
c0105bdb:	0f be c0             	movsbl %al,%eax
c0105bde:	83 ec 08             	sub    $0x8,%esp
c0105be1:	50                   	push   %eax
c0105be2:	68 f5 01 00 00       	push   $0x1f5
c0105be7:	e8 66 ff ff ff       	call   c0105b52 <out_byte>
c0105bec:	83 c4 10             	add    $0x10,%esp
c0105bef:	8b 45 0c             	mov    0xc(%ebp),%eax
c0105bf2:	c1 f8 18             	sar    $0x18,%eax
c0105bf5:	83 c8 e0             	or     $0xffffffe0,%eax
c0105bf8:	0f be c0             	movsbl %al,%eax
c0105bfb:	83 ec 08             	sub    $0x8,%esp
c0105bfe:	50                   	push   %eax
c0105bff:	68 f6 01 00 00       	push   $0x1f6
c0105c04:	e8 49 ff ff ff       	call   c0105b52 <out_byte>
c0105c09:	83 c4 10             	add    $0x10,%esp
c0105c0c:	83 ec 08             	sub    $0x8,%esp
c0105c0f:	6a 30                	push   $0x30
c0105c11:	68 f7 01 00 00       	push   $0x1f7
c0105c16:	e8 37 ff ff ff       	call   c0105b52 <out_byte>
c0105c1b:	83 c4 10             	add    $0x10,%esp
c0105c1e:	e8 cf e1 ff ff       	call   c0103df2 <waitdisk>
c0105c23:	c7 45 f4 00 00 00 00 	movl   $0x0,-0xc(%ebp)
c0105c2a:	eb 26                	jmp    c0105c52 <writesect+0xcb>
c0105c2c:	8b 45 f4             	mov    -0xc(%ebp),%eax
c0105c2f:	8d 14 85 00 00 00 00 	lea    0x0(,%eax,4),%edx
c0105c36:	8b 45 08             	mov    0x8(%ebp),%eax
c0105c39:	01 d0                	add    %edx,%eax
c0105c3b:	8b 00                	mov    (%eax),%eax
c0105c3d:	83 ec 08             	sub    $0x8,%esp
c0105c40:	50                   	push   %eax
c0105c41:	68 f0 01 00 00       	push   $0x1f0
c0105c46:	e8 25 ff ff ff       	call   c0105b70 <out_long>
c0105c4b:	83 c4 10             	add    $0x10,%esp
c0105c4e:	83 45 f4 01          	addl   $0x1,-0xc(%ebp)
c0105c52:	83 7d f4 7f          	cmpl   $0x7f,-0xc(%ebp)
c0105c56:	7e d4                	jle    c0105c2c <writesect+0xa5>
c0105c58:	c9                   	leave  
c0105c59:	c3                   	ret    

c0105c5a <fs_open>:
c0105c5a:	55                   	push   %ebp
c0105c5b:	89 e5                	mov    %esp,%ebp
c0105c5d:	83 ec 08             	sub    $0x8,%esp
c0105c60:	83 ec 08             	sub    $0x8,%esp
c0105c63:	68 40 88 15 c0       	push   $0xc0158840
c0105c68:	ff 75 08             	pushl  0x8(%ebp)
c0105c6b:	e8 05 00 00 00       	call   c0105c75 <fs_walk>
c0105c70:	83 c4 10             	add    $0x10,%esp
c0105c73:	c9                   	leave  
c0105c74:	c3                   	ret    

c0105c75 <fs_walk>:
c0105c75:	55                   	push   %ebp
c0105c76:	89 e5                	mov    %esp,%ebp
c0105c78:	53                   	push   %ebx
c0105c79:	81 ec 84 00 00 00    	sub    $0x84,%esp
c0105c7f:	8b 45 08             	mov    0x8(%ebp),%eax
c0105c82:	0f b6 00             	movzbl (%eax),%eax
c0105c85:	3c 2f                	cmp    $0x2f,%al
c0105c87:	75 6e                	jne    c0105cf7 <fs_walk+0x82>
c0105c89:	c7 05 40 52 16 c0 40 	movl   $0xc0158840,0xc0165240
c0105c90:	88 15 c0 
c0105c93:	c7 45 f4 01 00 00 00 	movl   $0x1,-0xc(%ebp)
c0105c9a:	eb 1c                	jmp    c0105cb8 <fs_walk+0x43>
c0105c9c:	8b 45 f4             	mov    -0xc(%ebp),%eax
c0105c9f:	8d 50 ff             	lea    -0x1(%eax),%edx
c0105ca2:	8b 4d f4             	mov    -0xc(%ebp),%ecx
c0105ca5:	8b 45 08             	mov    0x8(%ebp),%eax
c0105ca8:	01 c8                	add    %ecx,%eax
c0105caa:	0f b6 00             	movzbl (%eax),%eax
c0105cad:	88 84 15 78 ff ff ff 	mov    %al,-0x88(%ebp,%edx,1)
c0105cb4:	83 45 f4 01          	addl   $0x1,-0xc(%ebp)
c0105cb8:	8b 5d f4             	mov    -0xc(%ebp),%ebx
c0105cbb:	83 ec 0c             	sub    $0xc,%esp
c0105cbe:	ff 75 08             	pushl  0x8(%ebp)
c0105cc1:	e8 6f c8 ff ff       	call   c0102535 <strlen>
c0105cc6:	83 c4 10             	add    $0x10,%esp
c0105cc9:	39 c3                	cmp    %eax,%ebx
c0105ccb:	72 cf                	jb     c0105c9c <fs_walk+0x27>
c0105ccd:	8b 45 f4             	mov    -0xc(%ebp),%eax
c0105cd0:	83 e8 01             	sub    $0x1,%eax
c0105cd3:	c6 84 05 78 ff ff ff 	movb   $0x0,-0x88(%ebp,%eax,1)
c0105cda:	00 
c0105cdb:	83 ec 08             	sub    $0x8,%esp
c0105cde:	68 40 88 15 c0       	push   $0xc0158840
c0105ce3:	8d 85 78 ff ff ff    	lea    -0x88(%ebp),%eax
c0105ce9:	50                   	push   %eax
c0105cea:	e8 86 ff ff ff       	call   c0105c75 <fs_walk>
c0105cef:	83 c4 10             	add    $0x10,%esp
c0105cf2:	e9 2f 02 00 00       	jmp    c0105f26 <fs_walk+0x2b1>
c0105cf7:	8b 45 08             	mov    0x8(%ebp),%eax
c0105cfa:	0f b6 00             	movzbl (%eax),%eax
c0105cfd:	84 c0                	test   %al,%al
c0105cff:	75 0a                	jne    c0105d0b <fs_walk+0x96>
c0105d01:	b8 fe ff ff ff       	mov    $0xfffffffe,%eax
c0105d06:	e9 1b 02 00 00       	jmp    c0105f26 <fs_walk+0x2b1>
c0105d0b:	83 ec 0c             	sub    $0xc,%esp
c0105d0e:	ff 75 08             	pushl  0x8(%ebp)
c0105d11:	e8 1f c8 ff ff       	call   c0102535 <strlen>
c0105d16:	83 c4 10             	add    $0x10,%esp
c0105d19:	89 45 ec             	mov    %eax,-0x14(%ebp)
c0105d1c:	c7 45 f0 00 00 00 00 	movl   $0x0,-0x10(%ebp)
c0105d23:	eb 1b                	jmp    c0105d40 <fs_walk+0xcb>
c0105d25:	8b 55 f0             	mov    -0x10(%ebp),%edx
c0105d28:	8b 45 08             	mov    0x8(%ebp),%eax
c0105d2b:	01 d0                	add    %edx,%eax
c0105d2d:	0f b6 00             	movzbl (%eax),%eax
c0105d30:	3c 2f                	cmp    $0x2f,%al
c0105d32:	75 08                	jne    c0105d3c <fs_walk+0xc7>
c0105d34:	8b 45 f0             	mov    -0x10(%ebp),%eax
c0105d37:	89 45 ec             	mov    %eax,-0x14(%ebp)
c0105d3a:	eb 19                	jmp    c0105d55 <fs_walk+0xe0>
c0105d3c:	83 45 f0 01          	addl   $0x1,-0x10(%ebp)
c0105d40:	8b 5d f0             	mov    -0x10(%ebp),%ebx
c0105d43:	83 ec 0c             	sub    $0xc,%esp
c0105d46:	ff 75 08             	pushl  0x8(%ebp)
c0105d49:	e8 e7 c7 ff ff       	call   c0102535 <strlen>
c0105d4e:	83 c4 10             	add    $0x10,%esp
c0105d51:	39 c3                	cmp    %eax,%ebx
c0105d53:	72 d0                	jb     c0105d25 <fs_walk+0xb0>
c0105d55:	c7 45 f0 00 00 00 00 	movl   $0x0,-0x10(%ebp)
c0105d5c:	eb 19                	jmp    c0105d77 <fs_walk+0x102>
c0105d5e:	8b 55 f0             	mov    -0x10(%ebp),%edx
c0105d61:	8b 45 08             	mov    0x8(%ebp),%eax
c0105d64:	01 d0                	add    %edx,%eax
c0105d66:	0f b6 00             	movzbl (%eax),%eax
c0105d69:	8d 4d aa             	lea    -0x56(%ebp),%ecx
c0105d6c:	8b 55 f0             	mov    -0x10(%ebp),%edx
c0105d6f:	01 ca                	add    %ecx,%edx
c0105d71:	88 02                	mov    %al,(%edx)
c0105d73:	83 45 f0 01          	addl   $0x1,-0x10(%ebp)
c0105d77:	8b 45 f0             	mov    -0x10(%ebp),%eax
c0105d7a:	3b 45 ec             	cmp    -0x14(%ebp),%eax
c0105d7d:	7c df                	jl     c0105d5e <fs_walk+0xe9>
c0105d7f:	8d 55 aa             	lea    -0x56(%ebp),%edx
c0105d82:	8b 45 f0             	mov    -0x10(%ebp),%eax
c0105d85:	01 d0                	add    %edx,%eax
c0105d87:	c6 00 00             	movb   $0x0,(%eax)
c0105d8a:	c7 45 f0 00 00 00 00 	movl   $0x0,-0x10(%ebp)
c0105d91:	e9 71 01 00 00       	jmp    c0105f07 <fs_walk+0x292>
c0105d96:	8b 45 f0             	mov    -0x10(%ebp),%eax
c0105d99:	c1 e0 06             	shl    $0x6,%eax
c0105d9c:	89 c2                	mov    %eax,%edx
c0105d9e:	8b 45 0c             	mov    0xc(%ebp),%eax
c0105da1:	01 d0                	add    %edx,%eax
c0105da3:	83 ec 08             	sub    $0x8,%esp
c0105da6:	50                   	push   %eax
c0105da7:	8d 45 aa             	lea    -0x56(%ebp),%eax
c0105daa:	50                   	push   %eax
c0105dab:	e8 aa c6 ff ff       	call   c010245a <strcmp>
c0105db0:	83 c4 10             	add    $0x10,%esp
c0105db3:	85 c0                	test   %eax,%eax
c0105db5:	0f 85 48 01 00 00    	jne    c0105f03 <fs_walk+0x28e>
c0105dbb:	8b 55 0c             	mov    0xc(%ebp),%edx
c0105dbe:	8b 45 f0             	mov    -0x10(%ebp),%eax
c0105dc1:	c1 e0 06             	shl    $0x6,%eax
c0105dc4:	83 c0 30             	add    $0x30,%eax
c0105dc7:	01 d0                	add    %edx,%eax
c0105dc9:	8b 40 08             	mov    0x8(%eax),%eax
c0105dcc:	83 f8 01             	cmp    $0x1,%eax
c0105dcf:	0f 85 81 00 00 00    	jne    c0105e56 <fs_walk+0x1e1>
c0105dd5:	a1 44 57 11 c0       	mov    0xc0115744,%eax
c0105dda:	8b 40 68             	mov    0x68(%eax),%eax
c0105ddd:	89 45 e4             	mov    %eax,-0x1c(%ebp)
c0105de0:	a1 44 57 11 c0       	mov    0xc0115744,%eax
c0105de5:	8b 55 e4             	mov    -0x1c(%ebp),%edx
c0105de8:	83 c2 06             	add    $0x6,%edx
c0105deb:	c1 e2 04             	shl    $0x4,%edx
c0105dee:	01 d0                	add    %edx,%eax
c0105df0:	c7 40 0c 01 00 00 00 	movl   $0x1,0xc(%eax)
c0105df7:	a1 44 57 11 c0       	mov    0xc0115744,%eax
c0105dfc:	8b 55 e4             	mov    -0x1c(%ebp),%edx
c0105dff:	83 c2 06             	add    $0x6,%edx
c0105e02:	c1 e2 04             	shl    $0x4,%edx
c0105e05:	01 d0                	add    %edx,%eax
c0105e07:	c7 40 10 00 00 00 00 	movl   $0x0,0x10(%eax)
c0105e0e:	a1 44 57 11 c0       	mov    0xc0115744,%eax
c0105e13:	8b 55 e4             	mov    -0x1c(%ebp),%edx
c0105e16:	83 c2 06             	add    $0x6,%edx
c0105e19:	c1 e2 04             	shl    $0x4,%edx
c0105e1c:	01 c2                	add    %eax,%edx
c0105e1e:	8b 45 0c             	mov    0xc(%ebp),%eax
c0105e21:	89 42 18             	mov    %eax,0x18(%edx)
c0105e24:	a1 44 57 11 c0       	mov    0xc0115744,%eax
c0105e29:	8b 55 e4             	mov    -0x1c(%ebp),%edx
c0105e2c:	83 c2 06             	add    $0x6,%edx
c0105e2f:	c1 e2 04             	shl    $0x4,%edx
c0105e32:	01 c2                	add    %eax,%edx
c0105e34:	8b 45 f0             	mov    -0x10(%ebp),%eax
c0105e37:	89 42 14             	mov    %eax,0x14(%edx)
c0105e3a:	8b 45 e4             	mov    -0x1c(%ebp),%eax
c0105e3d:	89 45 e0             	mov    %eax,-0x20(%ebp)
c0105e40:	a1 44 57 11 c0       	mov    0xc0115744,%eax
c0105e45:	8b 50 68             	mov    0x68(%eax),%edx
c0105e48:	83 c2 01             	add    $0x1,%edx
c0105e4b:	89 50 68             	mov    %edx,0x68(%eax)
c0105e4e:	8b 45 e0             	mov    -0x20(%ebp),%eax
c0105e51:	e9 d0 00 00 00       	jmp    c0105f26 <fs_walk+0x2b1>
c0105e56:	8b 45 ec             	mov    -0x14(%ebp),%eax
c0105e59:	83 c0 01             	add    $0x1,%eax
c0105e5c:	89 45 e8             	mov    %eax,-0x18(%ebp)
c0105e5f:	eb 1c                	jmp    c0105e7d <fs_walk+0x208>
c0105e61:	8b 45 e8             	mov    -0x18(%ebp),%eax
c0105e64:	2b 45 ec             	sub    -0x14(%ebp),%eax
c0105e67:	8d 50 ff             	lea    -0x1(%eax),%edx
c0105e6a:	8b 4d e8             	mov    -0x18(%ebp),%ecx
c0105e6d:	8b 45 08             	mov    0x8(%ebp),%eax
c0105e70:	01 c8                	add    %ecx,%eax
c0105e72:	0f b6 00             	movzbl (%eax),%eax
c0105e75:	88 44 15 aa          	mov    %al,-0x56(%ebp,%edx,1)
c0105e79:	83 45 e8 01          	addl   $0x1,-0x18(%ebp)
c0105e7d:	8b 5d e8             	mov    -0x18(%ebp),%ebx
c0105e80:	83 ec 0c             	sub    $0xc,%esp
c0105e83:	ff 75 08             	pushl  0x8(%ebp)
c0105e86:	e8 aa c6 ff ff       	call   c0102535 <strlen>
c0105e8b:	83 c4 10             	add    $0x10,%esp
c0105e8e:	39 c3                	cmp    %eax,%ebx
c0105e90:	72 cf                	jb     c0105e61 <fs_walk+0x1ec>
c0105e92:	8b 45 e8             	mov    -0x18(%ebp),%eax
c0105e95:	2b 45 ec             	sub    -0x14(%ebp),%eax
c0105e98:	83 e8 01             	sub    $0x1,%eax
c0105e9b:	c6 44 05 aa 00       	movb   $0x0,-0x56(%ebp,%eax,1)
c0105ea0:	a1 34 88 15 c0       	mov    0xc0158834,%eax
c0105ea5:	c1 e0 09             	shl    $0x9,%eax
c0105ea8:	05 40 8a 15 c0       	add    $0xc0158a40,%eax
c0105ead:	a3 40 52 16 c0       	mov    %eax,0xc0165240
c0105eb2:	a1 40 52 16 c0       	mov    0xc0165240,%eax
c0105eb7:	89 45 dc             	mov    %eax,-0x24(%ebp)
c0105eba:	a1 34 88 15 c0       	mov    0xc0158834,%eax
c0105ebf:	83 c0 01             	add    $0x1,%eax
c0105ec2:	a3 34 88 15 c0       	mov    %eax,0xc0158834
c0105ec7:	8b 55 0c             	mov    0xc(%ebp),%edx
c0105eca:	8b 45 f0             	mov    -0x10(%ebp),%eax
c0105ecd:	c1 e0 06             	shl    $0x6,%eax
c0105ed0:	83 c0 30             	add    $0x30,%eax
c0105ed3:	01 d0                	add    %edx,%eax
c0105ed5:	8b 40 04             	mov    0x4(%eax),%eax
c0105ed8:	05 c9 00 00 00       	add    $0xc9,%eax
c0105edd:	89 c2                	mov    %eax,%edx
c0105edf:	8b 45 dc             	mov    -0x24(%ebp),%eax
c0105ee2:	83 ec 08             	sub    $0x8,%esp
c0105ee5:	52                   	push   %edx
c0105ee6:	50                   	push   %eax
c0105ee7:	e8 26 df ff ff       	call   c0103e12 <readsect>
c0105eec:	83 c4 10             	add    $0x10,%esp
c0105eef:	83 ec 08             	sub    $0x8,%esp
c0105ef2:	ff 75 dc             	pushl  -0x24(%ebp)
c0105ef5:	8d 45 aa             	lea    -0x56(%ebp),%eax
c0105ef8:	50                   	push   %eax
c0105ef9:	e8 77 fd ff ff       	call   c0105c75 <fs_walk>
c0105efe:	83 c4 10             	add    $0x10,%esp
c0105f01:	eb 23                	jmp    c0105f26 <fs_walk+0x2b1>
c0105f03:	83 45 f0 01          	addl   $0x1,-0x10(%ebp)
c0105f07:	83 7d f0 07          	cmpl   $0x7,-0x10(%ebp)
c0105f0b:	0f 8e 85 fe ff ff    	jle    c0105d96 <fs_walk+0x121>
c0105f11:	83 ec 0c             	sub    $0xc,%esp
c0105f14:	68 7f 73 10 c0       	push   $0xc010737f
c0105f19:	e8 69 ca ff ff       	call   c0102987 <printk>
c0105f1e:	83 c4 10             	add    $0x10,%esp
c0105f21:	b8 ff ff ff ff       	mov    $0xffffffff,%eax
c0105f26:	8b 5d fc             	mov    -0x4(%ebp),%ebx
c0105f29:	c9                   	leave  
c0105f2a:	c3                   	ret    

c0105f2b <min>:
c0105f2b:	55                   	push   %ebp
c0105f2c:	89 e5                	mov    %esp,%ebp
c0105f2e:	8b 45 08             	mov    0x8(%ebp),%eax
c0105f31:	39 45 0c             	cmp    %eax,0xc(%ebp)
c0105f34:	0f 4e 45 0c          	cmovle 0xc(%ebp),%eax
c0105f38:	5d                   	pop    %ebp
c0105f39:	c3                   	ret    

c0105f3a <fs_read>:
c0105f3a:	55                   	push   %ebp
c0105f3b:	89 e5                	mov    %esp,%ebp
c0105f3d:	81 ec 48 04 00 00    	sub    $0x448,%esp
c0105f43:	83 7d 08 00          	cmpl   $0x0,0x8(%ebp)
c0105f47:	0f 88 7f 03 00 00    	js     c01062cc <fs_read+0x392>
c0105f4d:	83 7d 08 07          	cmpl   $0x7,0x8(%ebp)
c0105f51:	0f 8f 75 03 00 00    	jg     c01062cc <fs_read+0x392>
c0105f57:	a1 44 57 11 c0       	mov    0xc0115744,%eax
c0105f5c:	8b 55 08             	mov    0x8(%ebp),%edx
c0105f5f:	83 c2 06             	add    $0x6,%edx
c0105f62:	c1 e2 04             	shl    $0x4,%edx
c0105f65:	01 d0                	add    %edx,%eax
c0105f67:	8b 50 0c             	mov    0xc(%eax),%edx
c0105f6a:	89 55 c4             	mov    %edx,-0x3c(%ebp)
c0105f6d:	8b 50 10             	mov    0x10(%eax),%edx
c0105f70:	89 55 c8             	mov    %edx,-0x38(%ebp)
c0105f73:	8b 50 14             	mov    0x14(%eax),%edx
c0105f76:	89 55 cc             	mov    %edx,-0x34(%ebp)
c0105f79:	8b 40 18             	mov    0x18(%eax),%eax
c0105f7c:	89 45 d0             	mov    %eax,-0x30(%ebp)
c0105f7f:	8b 45 cc             	mov    -0x34(%ebp),%eax
c0105f82:	89 45 e4             	mov    %eax,-0x1c(%ebp)
c0105f85:	8b 45 d0             	mov    -0x30(%ebp),%eax
c0105f88:	89 45 e0             	mov    %eax,-0x20(%ebp)
c0105f8b:	8b 55 e0             	mov    -0x20(%ebp),%edx
c0105f8e:	8b 45 e4             	mov    -0x1c(%ebp),%eax
c0105f91:	c1 e0 06             	shl    $0x6,%eax
c0105f94:	83 c0 30             	add    $0x30,%eax
c0105f97:	01 d0                	add    %edx,%eax
c0105f99:	8b 10                	mov    (%eax),%edx
c0105f9b:	a1 44 57 11 c0       	mov    0xc0115744,%eax
c0105fa0:	8b 4d 08             	mov    0x8(%ebp),%ecx
c0105fa3:	83 c1 06             	add    $0x6,%ecx
c0105fa6:	c1 e1 04             	shl    $0x4,%ecx
c0105fa9:	01 c8                	add    %ecx,%eax
c0105fab:	8b 40 10             	mov    0x10(%eax),%eax
c0105fae:	29 c2                	sub    %eax,%edx
c0105fb0:	89 d0                	mov    %edx,%eax
c0105fb2:	50                   	push   %eax
c0105fb3:	ff 75 10             	pushl  0x10(%ebp)
c0105fb6:	e8 70 ff ff ff       	call   c0105f2b <min>
c0105fbb:	83 c4 08             	add    $0x8,%esp
c0105fbe:	89 45 10             	mov    %eax,0x10(%ebp)
c0105fc1:	8b 55 e0             	mov    -0x20(%ebp),%edx
c0105fc4:	8b 45 e4             	mov    -0x1c(%ebp),%eax
c0105fc7:	c1 e0 06             	shl    $0x6,%eax
c0105fca:	83 c0 30             	add    $0x30,%eax
c0105fcd:	01 d0                	add    %edx,%eax
c0105fcf:	8b 40 04             	mov    0x4(%eax),%eax
c0105fd2:	89 45 dc             	mov    %eax,-0x24(%ebp)
c0105fd5:	8b 45 dc             	mov    -0x24(%ebp),%eax
c0105fd8:	05 c9 00 00 00       	add    $0xc9,%eax
c0105fdd:	83 ec 08             	sub    $0x8,%esp
c0105fe0:	50                   	push   %eax
c0105fe1:	8d 85 c4 fb ff ff    	lea    -0x43c(%ebp),%eax
c0105fe7:	50                   	push   %eax
c0105fe8:	e8 25 de ff ff       	call   c0103e12 <readsect>
c0105fed:	83 c4 10             	add    $0x10,%esp
c0105ff0:	a1 44 57 11 c0       	mov    0xc0115744,%eax
c0105ff5:	8b 55 08             	mov    0x8(%ebp),%edx
c0105ff8:	83 c2 06             	add    $0x6,%edx
c0105ffb:	c1 e2 04             	shl    $0x4,%edx
c0105ffe:	01 d0                	add    %edx,%eax
c0106000:	8b 40 10             	mov    0x10(%eax),%eax
c0106003:	c1 e8 09             	shr    $0x9,%eax
c0106006:	89 45 f4             	mov    %eax,-0xc(%ebp)
c0106009:	a1 44 57 11 c0       	mov    0xc0115744,%eax
c010600e:	8b 55 08             	mov    0x8(%ebp),%edx
c0106011:	83 c2 06             	add    $0x6,%edx
c0106014:	c1 e2 04             	shl    $0x4,%edx
c0106017:	01 d0                	add    %edx,%eax
c0106019:	8b 40 10             	mov    0x10(%eax),%eax
c010601c:	25 ff 01 00 00       	and    $0x1ff,%eax
c0106021:	89 45 d8             	mov    %eax,-0x28(%ebp)
c0106024:	a1 44 57 11 c0       	mov    0xc0115744,%eax
c0106029:	8b 55 08             	mov    0x8(%ebp),%edx
c010602c:	83 c2 06             	add    $0x6,%edx
c010602f:	c1 e2 04             	shl    $0x4,%edx
c0106032:	01 d0                	add    %edx,%eax
c0106034:	8b 50 10             	mov    0x10(%eax),%edx
c0106037:	8b 45 10             	mov    0x10(%ebp),%eax
c010603a:	01 d0                	add    %edx,%eax
c010603c:	c1 e8 09             	shr    $0x9,%eax
c010603f:	89 45 f0             	mov    %eax,-0x10(%ebp)
c0106042:	a1 44 57 11 c0       	mov    0xc0115744,%eax
c0106047:	8b 55 08             	mov    0x8(%ebp),%edx
c010604a:	83 c2 06             	add    $0x6,%edx
c010604d:	c1 e2 04             	shl    $0x4,%edx
c0106050:	01 d0                	add    %edx,%eax
c0106052:	8b 50 10             	mov    0x10(%eax),%edx
c0106055:	8b 45 10             	mov    0x10(%ebp),%eax
c0106058:	01 d0                	add    %edx,%eax
c010605a:	25 ff 01 00 00       	and    $0x1ff,%eax
c010605f:	89 45 d4             	mov    %eax,-0x2c(%ebp)
c0106062:	8b 45 f4             	mov    -0xc(%ebp),%eax
c0106065:	3b 45 f0             	cmp    -0x10(%ebp),%eax
c0106068:	0f 85 9e 00 00 00    	jne    c010610c <fs_read+0x1d2>
c010606e:	eb 40                	jmp    c01060b0 <fs_read+0x176>
c0106070:	8b 85 c0 fd ff ff    	mov    -0x240(%ebp),%eax
c0106076:	89 45 dc             	mov    %eax,-0x24(%ebp)
c0106079:	83 7d dc 00          	cmpl   $0x0,-0x24(%ebp)
c010607d:	75 12                	jne    c0106091 <fs_read+0x157>
c010607f:	83 ec 0c             	sub    $0xc,%esp
c0106082:	68 91 73 10 c0       	push   $0xc0107391
c0106087:	e8 fb c8 ff ff       	call   c0102987 <printk>
c010608c:	83 c4 10             	add    $0x10,%esp
c010608f:	eb fe                	jmp    c010608f <fs_read+0x155>
c0106091:	8b 45 dc             	mov    -0x24(%ebp),%eax
c0106094:	05 c9 00 00 00       	add    $0xc9,%eax
c0106099:	83 ec 08             	sub    $0x8,%esp
c010609c:	50                   	push   %eax
c010609d:	8d 85 c4 fb ff ff    	lea    -0x43c(%ebp),%eax
c01060a3:	50                   	push   %eax
c01060a4:	e8 69 dd ff ff       	call   c0103e12 <readsect>
c01060a9:	83 c4 10             	add    $0x10,%esp
c01060ac:	83 6d f4 02          	subl   $0x2,-0xc(%ebp)
c01060b0:	83 7d f4 01          	cmpl   $0x1,-0xc(%ebp)
c01060b4:	77 ba                	ja     c0106070 <fs_read+0x136>
c01060b6:	8b 45 f4             	mov    -0xc(%ebp),%eax
c01060b9:	8b 84 85 c4 fb ff ff 	mov    -0x43c(%ebp,%eax,4),%eax
c01060c0:	05 c9 00 00 00       	add    $0xc9,%eax
c01060c5:	83 ec 08             	sub    $0x8,%esp
c01060c8:	50                   	push   %eax
c01060c9:	8d 85 c4 fd ff ff    	lea    -0x23c(%ebp),%eax
c01060cf:	50                   	push   %eax
c01060d0:	e8 3d dd ff ff       	call   c0103e12 <readsect>
c01060d5:	83 c4 10             	add    $0x10,%esp
c01060d8:	c7 45 ec 00 00 00 00 	movl   $0x0,-0x14(%ebp)
c01060df:	eb 1e                	jmp    c01060ff <fs_read+0x1c5>
c01060e1:	8b 55 0c             	mov    0xc(%ebp),%edx
c01060e4:	8b 45 ec             	mov    -0x14(%ebp),%eax
c01060e7:	01 c2                	add    %eax,%edx
c01060e9:	8b 4d d8             	mov    -0x28(%ebp),%ecx
c01060ec:	8b 45 ec             	mov    -0x14(%ebp),%eax
c01060ef:	01 c8                	add    %ecx,%eax
c01060f1:	0f b6 84 05 c4 fd ff 	movzbl -0x23c(%ebp,%eax,1),%eax
c01060f8:	ff 
c01060f9:	88 02                	mov    %al,(%edx)
c01060fb:	83 45 ec 01          	addl   $0x1,-0x14(%ebp)
c01060ff:	8b 45 10             	mov    0x10(%ebp),%eax
c0106102:	3b 45 ec             	cmp    -0x14(%ebp),%eax
c0106105:	77 da                	ja     c01060e1 <fs_read+0x1a7>
c0106107:	e9 8f 01 00 00       	jmp    c010629b <fs_read+0x361>
c010610c:	eb 2c                	jmp    c010613a <fs_read+0x200>
c010610e:	8b 85 c0 fd ff ff    	mov    -0x240(%ebp),%eax
c0106114:	89 45 dc             	mov    %eax,-0x24(%ebp)
c0106117:	8b 45 dc             	mov    -0x24(%ebp),%eax
c010611a:	05 c9 00 00 00       	add    $0xc9,%eax
c010611f:	83 ec 08             	sub    $0x8,%esp
c0106122:	50                   	push   %eax
c0106123:	8d 85 c4 fb ff ff    	lea    -0x43c(%ebp),%eax
c0106129:	50                   	push   %eax
c010612a:	e8 e3 dc ff ff       	call   c0103e12 <readsect>
c010612f:	83 c4 10             	add    $0x10,%esp
c0106132:	83 6d f4 02          	subl   $0x2,-0xc(%ebp)
c0106136:	83 6d f0 02          	subl   $0x2,-0x10(%ebp)
c010613a:	83 7d f4 01          	cmpl   $0x1,-0xc(%ebp)
c010613e:	77 ce                	ja     c010610e <fs_read+0x1d4>
c0106140:	8b 45 f4             	mov    -0xc(%ebp),%eax
c0106143:	8b 84 85 c4 fb ff ff 	mov    -0x43c(%ebp,%eax,4),%eax
c010614a:	05 c9 00 00 00       	add    $0xc9,%eax
c010614f:	83 ec 08             	sub    $0x8,%esp
c0106152:	50                   	push   %eax
c0106153:	8d 85 c4 fd ff ff    	lea    -0x23c(%ebp),%eax
c0106159:	50                   	push   %eax
c010615a:	e8 b3 dc ff ff       	call   c0103e12 <readsect>
c010615f:	83 c4 10             	add    $0x10,%esp
c0106162:	c7 45 e8 00 00 00 00 	movl   $0x0,-0x18(%ebp)
c0106169:	eb 1e                	jmp    c0106189 <fs_read+0x24f>
c010616b:	8b 55 0c             	mov    0xc(%ebp),%edx
c010616e:	8b 45 e8             	mov    -0x18(%ebp),%eax
c0106171:	01 c2                	add    %eax,%edx
c0106173:	8b 4d d8             	mov    -0x28(%ebp),%ecx
c0106176:	8b 45 e8             	mov    -0x18(%ebp),%eax
c0106179:	01 c8                	add    %ecx,%eax
c010617b:	0f b6 84 05 c4 fd ff 	movzbl -0x23c(%ebp,%eax,1),%eax
c0106182:	ff 
c0106183:	88 02                	mov    %al,(%edx)
c0106185:	83 45 e8 01          	addl   $0x1,-0x18(%ebp)
c0106189:	b8 00 02 00 00       	mov    $0x200,%eax
c010618e:	2b 45 d8             	sub    -0x28(%ebp),%eax
c0106191:	3b 45 e8             	cmp    -0x18(%ebp),%eax
c0106194:	77 d5                	ja     c010616b <fs_read+0x231>
c0106196:	b8 00 02 00 00       	mov    $0x200,%eax
c010619b:	2b 45 d8             	sub    -0x28(%ebp),%eax
c010619e:	01 45 0c             	add    %eax,0xc(%ebp)
c01061a1:	83 45 f4 01          	addl   $0x1,-0xc(%ebp)
c01061a5:	eb 66                	jmp    c010620d <fs_read+0x2d3>
c01061a7:	8b 45 f4             	mov    -0xc(%ebp),%eax
c01061aa:	89 45 e8             	mov    %eax,-0x18(%ebp)
c01061ad:	eb 29                	jmp    c01061d8 <fs_read+0x29e>
c01061af:	8b 45 e8             	mov    -0x18(%ebp),%eax
c01061b2:	8b 84 85 c4 fb ff ff 	mov    -0x43c(%ebp,%eax,4),%eax
c01061b9:	05 c9 00 00 00       	add    $0xc9,%eax
c01061be:	83 ec 08             	sub    $0x8,%esp
c01061c1:	50                   	push   %eax
c01061c2:	ff 75 0c             	pushl  0xc(%ebp)
c01061c5:	e8 48 dc ff ff       	call   c0103e12 <readsect>
c01061ca:	83 c4 10             	add    $0x10,%esp
c01061cd:	81 45 0c 00 02 00 00 	addl   $0x200,0xc(%ebp)
c01061d4:	83 45 e8 01          	addl   $0x1,-0x18(%ebp)
c01061d8:	83 7d e8 01          	cmpl   $0x1,-0x18(%ebp)
c01061dc:	76 d1                	jbe    c01061af <fs_read+0x275>
c01061de:	c7 45 f4 00 00 00 00 	movl   $0x0,-0xc(%ebp)
c01061e5:	83 6d f0 02          	subl   $0x2,-0x10(%ebp)
c01061e9:	8b 85 c0 fd ff ff    	mov    -0x240(%ebp),%eax
c01061ef:	89 45 dc             	mov    %eax,-0x24(%ebp)
c01061f2:	8b 45 dc             	mov    -0x24(%ebp),%eax
c01061f5:	05 c9 00 00 00       	add    $0xc9,%eax
c01061fa:	83 ec 08             	sub    $0x8,%esp
c01061fd:	50                   	push   %eax
c01061fe:	8d 85 c4 fb ff ff    	lea    -0x43c(%ebp),%eax
c0106204:	50                   	push   %eax
c0106205:	e8 08 dc ff ff       	call   c0103e12 <readsect>
c010620a:	83 c4 10             	add    $0x10,%esp
c010620d:	83 7d f0 01          	cmpl   $0x1,-0x10(%ebp)
c0106211:	77 94                	ja     c01061a7 <fs_read+0x26d>
c0106213:	8b 45 f4             	mov    -0xc(%ebp),%eax
c0106216:	89 45 e8             	mov    %eax,-0x18(%ebp)
c0106219:	eb 29                	jmp    c0106244 <fs_read+0x30a>
c010621b:	8b 45 e8             	mov    -0x18(%ebp),%eax
c010621e:	8b 84 85 c4 fb ff ff 	mov    -0x43c(%ebp,%eax,4),%eax
c0106225:	05 c9 00 00 00       	add    $0xc9,%eax
c010622a:	83 ec 08             	sub    $0x8,%esp
c010622d:	50                   	push   %eax
c010622e:	ff 75 0c             	pushl  0xc(%ebp)
c0106231:	e8 dc db ff ff       	call   c0103e12 <readsect>
c0106236:	83 c4 10             	add    $0x10,%esp
c0106239:	81 45 0c 00 02 00 00 	addl   $0x200,0xc(%ebp)
c0106240:	83 45 e8 01          	addl   $0x1,-0x18(%ebp)
c0106244:	8b 45 e8             	mov    -0x18(%ebp),%eax
c0106247:	3b 45 f0             	cmp    -0x10(%ebp),%eax
c010624a:	72 cf                	jb     c010621b <fs_read+0x2e1>
c010624c:	8b 45 f0             	mov    -0x10(%ebp),%eax
c010624f:	8b 84 85 c4 fb ff ff 	mov    -0x43c(%ebp,%eax,4),%eax
c0106256:	05 c9 00 00 00       	add    $0xc9,%eax
c010625b:	83 ec 08             	sub    $0x8,%esp
c010625e:	50                   	push   %eax
c010625f:	8d 85 c4 fd ff ff    	lea    -0x23c(%ebp),%eax
c0106265:	50                   	push   %eax
c0106266:	e8 a7 db ff ff       	call   c0103e12 <readsect>
c010626b:	83 c4 10             	add    $0x10,%esp
c010626e:	c7 45 e8 00 00 00 00 	movl   $0x0,-0x18(%ebp)
c0106275:	eb 1c                	jmp    c0106293 <fs_read+0x359>
c0106277:	8b 55 0c             	mov    0xc(%ebp),%edx
c010627a:	8b 45 e8             	mov    -0x18(%ebp),%eax
c010627d:	01 c2                	add    %eax,%edx
c010627f:	8d 8d c4 fd ff ff    	lea    -0x23c(%ebp),%ecx
c0106285:	8b 45 e8             	mov    -0x18(%ebp),%eax
c0106288:	01 c8                	add    %ecx,%eax
c010628a:	0f b6 00             	movzbl (%eax),%eax
c010628d:	88 02                	mov    %al,(%edx)
c010628f:	83 45 e8 01          	addl   $0x1,-0x18(%ebp)
c0106293:	8b 45 e8             	mov    -0x18(%ebp),%eax
c0106296:	3b 45 d4             	cmp    -0x2c(%ebp),%eax
c0106299:	72 dc                	jb     c0106277 <fs_read+0x33d>
c010629b:	a1 44 57 11 c0       	mov    0xc0115744,%eax
c01062a0:	8b 15 44 57 11 c0    	mov    0xc0115744,%edx
c01062a6:	8b 4d 08             	mov    0x8(%ebp),%ecx
c01062a9:	83 c1 06             	add    $0x6,%ecx
c01062ac:	c1 e1 04             	shl    $0x4,%ecx
c01062af:	01 ca                	add    %ecx,%edx
c01062b1:	8b 4a 10             	mov    0x10(%edx),%ecx
c01062b4:	8b 55 10             	mov    0x10(%ebp),%edx
c01062b7:	01 ca                	add    %ecx,%edx
c01062b9:	8b 4d 08             	mov    0x8(%ebp),%ecx
c01062bc:	83 c1 06             	add    $0x6,%ecx
c01062bf:	c1 e1 04             	shl    $0x4,%ecx
c01062c2:	01 c8                	add    %ecx,%eax
c01062c4:	89 50 10             	mov    %edx,0x10(%eax)
c01062c7:	8b 45 10             	mov    0x10(%ebp),%eax
c01062ca:	eb 12                	jmp    c01062de <fs_read+0x3a4>
c01062cc:	83 ec 0c             	sub    $0xc,%esp
c01062cf:	68 9d 73 10 c0       	push   $0xc010739d
c01062d4:	e8 ae c6 ff ff       	call   c0102987 <printk>
c01062d9:	83 c4 10             	add    $0x10,%esp
c01062dc:	eb fe                	jmp    c01062dc <fs_read+0x3a2>
c01062de:	c9                   	leave  
c01062df:	c3                   	ret    

c01062e0 <fs_write>:
c01062e0:	55                   	push   %ebp
c01062e1:	89 e5                	mov    %esp,%ebp
c01062e3:	81 ec 48 04 00 00    	sub    $0x448,%esp
c01062e9:	a1 44 57 11 c0       	mov    0xc0115744,%eax
c01062ee:	8b 55 08             	mov    0x8(%ebp),%edx
c01062f1:	83 c2 06             	add    $0x6,%edx
c01062f4:	c1 e2 04             	shl    $0x4,%edx
c01062f7:	01 d0                	add    %edx,%eax
c01062f9:	8b 50 0c             	mov    0xc(%eax),%edx
c01062fc:	89 55 c4             	mov    %edx,-0x3c(%ebp)
c01062ff:	8b 50 10             	mov    0x10(%eax),%edx
c0106302:	89 55 c8             	mov    %edx,-0x38(%ebp)
c0106305:	8b 50 14             	mov    0x14(%eax),%edx
c0106308:	89 55 cc             	mov    %edx,-0x34(%ebp)
c010630b:	8b 40 18             	mov    0x18(%eax),%eax
c010630e:	89 45 d0             	mov    %eax,-0x30(%ebp)
c0106311:	8b 45 cc             	mov    -0x34(%ebp),%eax
c0106314:	89 45 e4             	mov    %eax,-0x1c(%ebp)
c0106317:	8b 45 d0             	mov    -0x30(%ebp),%eax
c010631a:	89 45 e0             	mov    %eax,-0x20(%ebp)
c010631d:	83 7d 08 00          	cmpl   $0x0,0x8(%ebp)
c0106321:	0f 88 94 03 00 00    	js     c01066bb <fs_write+0x3db>
c0106327:	83 7d 08 07          	cmpl   $0x7,0x8(%ebp)
c010632b:	0f 8f 8a 03 00 00    	jg     c01066bb <fs_write+0x3db>
c0106331:	8b 55 e0             	mov    -0x20(%ebp),%edx
c0106334:	8b 45 e4             	mov    -0x1c(%ebp),%eax
c0106337:	c1 e0 06             	shl    $0x6,%eax
c010633a:	83 c0 30             	add    $0x30,%eax
c010633d:	01 d0                	add    %edx,%eax
c010633f:	8b 10                	mov    (%eax),%edx
c0106341:	a1 44 57 11 c0       	mov    0xc0115744,%eax
c0106346:	8b 4d 08             	mov    0x8(%ebp),%ecx
c0106349:	83 c1 06             	add    $0x6,%ecx
c010634c:	c1 e1 04             	shl    $0x4,%ecx
c010634f:	01 c8                	add    %ecx,%eax
c0106351:	8b 40 10             	mov    0x10(%eax),%eax
c0106354:	29 c2                	sub    %eax,%edx
c0106356:	89 d0                	mov    %edx,%eax
c0106358:	50                   	push   %eax
c0106359:	ff 75 10             	pushl  0x10(%ebp)
c010635c:	e8 ca fb ff ff       	call   c0105f2b <min>
c0106361:	83 c4 08             	add    $0x8,%esp
c0106364:	89 45 10             	mov    %eax,0x10(%ebp)
c0106367:	8b 55 e0             	mov    -0x20(%ebp),%edx
c010636a:	8b 45 e4             	mov    -0x1c(%ebp),%eax
c010636d:	c1 e0 06             	shl    $0x6,%eax
c0106370:	83 c0 30             	add    $0x30,%eax
c0106373:	01 d0                	add    %edx,%eax
c0106375:	8b 40 04             	mov    0x4(%eax),%eax
c0106378:	89 45 dc             	mov    %eax,-0x24(%ebp)
c010637b:	8b 45 dc             	mov    -0x24(%ebp),%eax
c010637e:	05 c9 00 00 00       	add    $0xc9,%eax
c0106383:	83 ec 08             	sub    $0x8,%esp
c0106386:	50                   	push   %eax
c0106387:	8d 85 c4 fb ff ff    	lea    -0x43c(%ebp),%eax
c010638d:	50                   	push   %eax
c010638e:	e8 7f da ff ff       	call   c0103e12 <readsect>
c0106393:	83 c4 10             	add    $0x10,%esp
c0106396:	a1 44 57 11 c0       	mov    0xc0115744,%eax
c010639b:	8b 55 08             	mov    0x8(%ebp),%edx
c010639e:	83 c2 06             	add    $0x6,%edx
c01063a1:	c1 e2 04             	shl    $0x4,%edx
c01063a4:	01 d0                	add    %edx,%eax
c01063a6:	8b 40 10             	mov    0x10(%eax),%eax
c01063a9:	c1 e8 09             	shr    $0x9,%eax
c01063ac:	89 45 f4             	mov    %eax,-0xc(%ebp)
c01063af:	a1 44 57 11 c0       	mov    0xc0115744,%eax
c01063b4:	8b 55 08             	mov    0x8(%ebp),%edx
c01063b7:	83 c2 06             	add    $0x6,%edx
c01063ba:	c1 e2 04             	shl    $0x4,%edx
c01063bd:	01 d0                	add    %edx,%eax
c01063bf:	8b 40 10             	mov    0x10(%eax),%eax
c01063c2:	25 ff 01 00 00       	and    $0x1ff,%eax
c01063c7:	89 45 d8             	mov    %eax,-0x28(%ebp)
c01063ca:	a1 44 57 11 c0       	mov    0xc0115744,%eax
c01063cf:	8b 55 08             	mov    0x8(%ebp),%edx
c01063d2:	83 c2 06             	add    $0x6,%edx
c01063d5:	c1 e2 04             	shl    $0x4,%edx
c01063d8:	01 d0                	add    %edx,%eax
c01063da:	8b 50 10             	mov    0x10(%eax),%edx
c01063dd:	8b 45 10             	mov    0x10(%ebp),%eax
c01063e0:	01 d0                	add    %edx,%eax
c01063e2:	c1 e8 09             	shr    $0x9,%eax
c01063e5:	89 45 f0             	mov    %eax,-0x10(%ebp)
c01063e8:	a1 44 57 11 c0       	mov    0xc0115744,%eax
c01063ed:	8b 55 08             	mov    0x8(%ebp),%edx
c01063f0:	83 c2 06             	add    $0x6,%edx
c01063f3:	c1 e2 04             	shl    $0x4,%edx
c01063f6:	01 d0                	add    %edx,%eax
c01063f8:	8b 50 10             	mov    0x10(%eax),%edx
c01063fb:	8b 45 10             	mov    0x10(%ebp),%eax
c01063fe:	01 d0                	add    %edx,%eax
c0106400:	25 ff 01 00 00       	and    $0x1ff,%eax
c0106405:	89 45 d4             	mov    %eax,-0x2c(%ebp)
c0106408:	8b 45 f4             	mov    -0xc(%ebp),%eax
c010640b:	3b 45 f0             	cmp    -0x10(%ebp),%eax
c010640e:	0f 85 a8 00 00 00    	jne    c01064bc <fs_write+0x1dc>
c0106414:	eb 28                	jmp    c010643e <fs_write+0x15e>
c0106416:	8b 85 c0 fd ff ff    	mov    -0x240(%ebp),%eax
c010641c:	89 45 dc             	mov    %eax,-0x24(%ebp)
c010641f:	8b 45 dc             	mov    -0x24(%ebp),%eax
c0106422:	05 c9 00 00 00       	add    $0xc9,%eax
c0106427:	83 ec 08             	sub    $0x8,%esp
c010642a:	50                   	push   %eax
c010642b:	8d 85 c4 fb ff ff    	lea    -0x43c(%ebp),%eax
c0106431:	50                   	push   %eax
c0106432:	e8 db d9 ff ff       	call   c0103e12 <readsect>
c0106437:	83 c4 10             	add    $0x10,%esp
c010643a:	83 6d f4 02          	subl   $0x2,-0xc(%ebp)
c010643e:	83 7d f4 01          	cmpl   $0x1,-0xc(%ebp)
c0106442:	77 d2                	ja     c0106416 <fs_write+0x136>
c0106444:	8b 45 f4             	mov    -0xc(%ebp),%eax
c0106447:	8b 84 85 c4 fb ff ff 	mov    -0x43c(%ebp,%eax,4),%eax
c010644e:	05 c9 00 00 00       	add    $0xc9,%eax
c0106453:	83 ec 08             	sub    $0x8,%esp
c0106456:	50                   	push   %eax
c0106457:	8d 85 c4 fd ff ff    	lea    -0x23c(%ebp),%eax
c010645d:	50                   	push   %eax
c010645e:	e8 af d9 ff ff       	call   c0103e12 <readsect>
c0106463:	83 c4 10             	add    $0x10,%esp
c0106466:	c7 45 ec 00 00 00 00 	movl   $0x0,-0x14(%ebp)
c010646d:	eb 1e                	jmp    c010648d <fs_write+0x1ad>
c010646f:	8b 55 d8             	mov    -0x28(%ebp),%edx
c0106472:	8b 45 ec             	mov    -0x14(%ebp),%eax
c0106475:	01 c2                	add    %eax,%edx
c0106477:	8b 4d 0c             	mov    0xc(%ebp),%ecx
c010647a:	8b 45 ec             	mov    -0x14(%ebp),%eax
c010647d:	01 c8                	add    %ecx,%eax
c010647f:	0f b6 00             	movzbl (%eax),%eax
c0106482:	88 84 15 c4 fd ff ff 	mov    %al,-0x23c(%ebp,%edx,1)
c0106489:	83 45 ec 01          	addl   $0x1,-0x14(%ebp)
c010648d:	8b 45 10             	mov    0x10(%ebp),%eax
c0106490:	3b 45 ec             	cmp    -0x14(%ebp),%eax
c0106493:	77 da                	ja     c010646f <fs_write+0x18f>
c0106495:	8b 45 f4             	mov    -0xc(%ebp),%eax
c0106498:	8b 84 85 c4 fb ff ff 	mov    -0x43c(%ebp,%eax,4),%eax
c010649f:	05 c9 00 00 00       	add    $0xc9,%eax
c01064a4:	83 ec 08             	sub    $0x8,%esp
c01064a7:	50                   	push   %eax
c01064a8:	8d 85 c4 fd ff ff    	lea    -0x23c(%ebp),%eax
c01064ae:	50                   	push   %eax
c01064af:	e8 d3 f6 ff ff       	call   c0105b87 <writesect>
c01064b4:	83 c4 10             	add    $0x10,%esp
c01064b7:	e9 ce 01 00 00       	jmp    c010668a <fs_write+0x3aa>
c01064bc:	eb 2c                	jmp    c01064ea <fs_write+0x20a>
c01064be:	8b 85 c0 fd ff ff    	mov    -0x240(%ebp),%eax
c01064c4:	89 45 dc             	mov    %eax,-0x24(%ebp)
c01064c7:	8b 45 dc             	mov    -0x24(%ebp),%eax
c01064ca:	05 c9 00 00 00       	add    $0xc9,%eax
c01064cf:	83 ec 08             	sub    $0x8,%esp
c01064d2:	50                   	push   %eax
c01064d3:	8d 85 c4 fb ff ff    	lea    -0x43c(%ebp),%eax
c01064d9:	50                   	push   %eax
c01064da:	e8 33 d9 ff ff       	call   c0103e12 <readsect>
c01064df:	83 c4 10             	add    $0x10,%esp
c01064e2:	83 6d f4 02          	subl   $0x2,-0xc(%ebp)
c01064e6:	83 6d f0 02          	subl   $0x2,-0x10(%ebp)
c01064ea:	83 7d f4 01          	cmpl   $0x1,-0xc(%ebp)
c01064ee:	77 ce                	ja     c01064be <fs_write+0x1de>
c01064f0:	8b 45 f4             	mov    -0xc(%ebp),%eax
c01064f3:	8b 84 85 c4 fb ff ff 	mov    -0x43c(%ebp,%eax,4),%eax
c01064fa:	05 c9 00 00 00       	add    $0xc9,%eax
c01064ff:	83 ec 08             	sub    $0x8,%esp
c0106502:	50                   	push   %eax
c0106503:	8d 85 c4 fd ff ff    	lea    -0x23c(%ebp),%eax
c0106509:	50                   	push   %eax
c010650a:	e8 03 d9 ff ff       	call   c0103e12 <readsect>
c010650f:	83 c4 10             	add    $0x10,%esp
c0106512:	c7 45 e8 00 00 00 00 	movl   $0x0,-0x18(%ebp)
c0106519:	eb 1e                	jmp    c0106539 <fs_write+0x259>
c010651b:	8b 55 d8             	mov    -0x28(%ebp),%edx
c010651e:	8b 45 e8             	mov    -0x18(%ebp),%eax
c0106521:	01 c2                	add    %eax,%edx
c0106523:	8b 4d 0c             	mov    0xc(%ebp),%ecx
c0106526:	8b 45 e8             	mov    -0x18(%ebp),%eax
c0106529:	01 c8                	add    %ecx,%eax
c010652b:	0f b6 00             	movzbl (%eax),%eax
c010652e:	88 84 15 c4 fd ff ff 	mov    %al,-0x23c(%ebp,%edx,1)
c0106535:	83 45 e8 01          	addl   $0x1,-0x18(%ebp)
c0106539:	8b 45 10             	mov    0x10(%ebp),%eax
c010653c:	3b 45 e8             	cmp    -0x18(%ebp),%eax
c010653f:	77 da                	ja     c010651b <fs_write+0x23b>
c0106541:	8b 45 f4             	mov    -0xc(%ebp),%eax
c0106544:	8b 84 85 c4 fb ff ff 	mov    -0x43c(%ebp,%eax,4),%eax
c010654b:	05 c9 00 00 00       	add    $0xc9,%eax
c0106550:	83 ec 08             	sub    $0x8,%esp
c0106553:	50                   	push   %eax
c0106554:	8d 85 c4 fd ff ff    	lea    -0x23c(%ebp),%eax
c010655a:	50                   	push   %eax
c010655b:	e8 27 f6 ff ff       	call   c0105b87 <writesect>
c0106560:	83 c4 10             	add    $0x10,%esp
c0106563:	b8 00 02 00 00       	mov    $0x200,%eax
c0106568:	2b 45 d8             	sub    -0x28(%ebp),%eax
c010656b:	01 45 0c             	add    %eax,0xc(%ebp)
c010656e:	83 45 f4 01          	addl   $0x1,-0xc(%ebp)
c0106572:	eb 66                	jmp    c01065da <fs_write+0x2fa>
c0106574:	8b 45 f4             	mov    -0xc(%ebp),%eax
c0106577:	89 45 e8             	mov    %eax,-0x18(%ebp)
c010657a:	eb 29                	jmp    c01065a5 <fs_write+0x2c5>
c010657c:	8b 45 e8             	mov    -0x18(%ebp),%eax
c010657f:	8b 84 85 c4 fb ff ff 	mov    -0x43c(%ebp,%eax,4),%eax
c0106586:	05 c9 00 00 00       	add    $0xc9,%eax
c010658b:	83 ec 08             	sub    $0x8,%esp
c010658e:	50                   	push   %eax
c010658f:	ff 75 0c             	pushl  0xc(%ebp)
c0106592:	e8 f0 f5 ff ff       	call   c0105b87 <writesect>
c0106597:	83 c4 10             	add    $0x10,%esp
c010659a:	81 45 0c 00 02 00 00 	addl   $0x200,0xc(%ebp)
c01065a1:	83 45 e8 01          	addl   $0x1,-0x18(%ebp)
c01065a5:	83 7d e8 01          	cmpl   $0x1,-0x18(%ebp)
c01065a9:	76 d1                	jbe    c010657c <fs_write+0x29c>
c01065ab:	c7 45 f4 00 00 00 00 	movl   $0x0,-0xc(%ebp)
c01065b2:	83 6d f0 02          	subl   $0x2,-0x10(%ebp)
c01065b6:	8b 85 c0 fd ff ff    	mov    -0x240(%ebp),%eax
c01065bc:	89 45 dc             	mov    %eax,-0x24(%ebp)
c01065bf:	8b 45 dc             	mov    -0x24(%ebp),%eax
c01065c2:	05 c9 00 00 00       	add    $0xc9,%eax
c01065c7:	83 ec 08             	sub    $0x8,%esp
c01065ca:	50                   	push   %eax
c01065cb:	8d 85 c4 fb ff ff    	lea    -0x43c(%ebp),%eax
c01065d1:	50                   	push   %eax
c01065d2:	e8 3b d8 ff ff       	call   c0103e12 <readsect>
c01065d7:	83 c4 10             	add    $0x10,%esp
c01065da:	83 7d f0 01          	cmpl   $0x1,-0x10(%ebp)
c01065de:	77 94                	ja     c0106574 <fs_write+0x294>
c01065e0:	8b 45 f4             	mov    -0xc(%ebp),%eax
c01065e3:	89 45 e8             	mov    %eax,-0x18(%ebp)
c01065e6:	eb 29                	jmp    c0106611 <fs_write+0x331>
c01065e8:	8b 45 e8             	mov    -0x18(%ebp),%eax
c01065eb:	8b 84 85 c4 fb ff ff 	mov    -0x43c(%ebp,%eax,4),%eax
c01065f2:	05 c9 00 00 00       	add    $0xc9,%eax
c01065f7:	83 ec 08             	sub    $0x8,%esp
c01065fa:	50                   	push   %eax
c01065fb:	ff 75 0c             	pushl  0xc(%ebp)
c01065fe:	e8 84 f5 ff ff       	call   c0105b87 <writesect>
c0106603:	83 c4 10             	add    $0x10,%esp
c0106606:	81 45 0c 00 02 00 00 	addl   $0x200,0xc(%ebp)
c010660d:	83 45 e8 01          	addl   $0x1,-0x18(%ebp)
c0106611:	8b 45 e8             	mov    -0x18(%ebp),%eax
c0106614:	3b 45 f0             	cmp    -0x10(%ebp),%eax
c0106617:	72 cf                	jb     c01065e8 <fs_write+0x308>
c0106619:	8b 45 f0             	mov    -0x10(%ebp),%eax
c010661c:	8b 84 85 c4 fb ff ff 	mov    -0x43c(%ebp,%eax,4),%eax
c0106623:	05 c9 00 00 00       	add    $0xc9,%eax
c0106628:	83 ec 08             	sub    $0x8,%esp
c010662b:	50                   	push   %eax
c010662c:	8d 85 c4 fd ff ff    	lea    -0x23c(%ebp),%eax
c0106632:	50                   	push   %eax
c0106633:	e8 da d7 ff ff       	call   c0103e12 <readsect>
c0106638:	83 c4 10             	add    $0x10,%esp
c010663b:	c7 45 e8 00 00 00 00 	movl   $0x0,-0x18(%ebp)
c0106642:	eb 1c                	jmp    c0106660 <fs_write+0x380>
c0106644:	8b 55 0c             	mov    0xc(%ebp),%edx
c0106647:	8b 45 e8             	mov    -0x18(%ebp),%eax
c010664a:	01 d0                	add    %edx,%eax
c010664c:	0f b6 00             	movzbl (%eax),%eax
c010664f:	8d 8d c4 fd ff ff    	lea    -0x23c(%ebp),%ecx
c0106655:	8b 55 e8             	mov    -0x18(%ebp),%edx
c0106658:	01 ca                	add    %ecx,%edx
c010665a:	88 02                	mov    %al,(%edx)
c010665c:	83 45 e8 01          	addl   $0x1,-0x18(%ebp)
c0106660:	8b 45 e8             	mov    -0x18(%ebp),%eax
c0106663:	3b 45 d4             	cmp    -0x2c(%ebp),%eax
c0106666:	72 dc                	jb     c0106644 <fs_write+0x364>
c0106668:	8b 45 f0             	mov    -0x10(%ebp),%eax
c010666b:	8b 84 85 c4 fb ff ff 	mov    -0x43c(%ebp,%eax,4),%eax
c0106672:	05 c9 00 00 00       	add    $0xc9,%eax
c0106677:	83 ec 08             	sub    $0x8,%esp
c010667a:	50                   	push   %eax
c010667b:	8d 85 c4 fd ff ff    	lea    -0x23c(%ebp),%eax
c0106681:	50                   	push   %eax
c0106682:	e8 00 f5 ff ff       	call   c0105b87 <writesect>
c0106687:	83 c4 10             	add    $0x10,%esp
c010668a:	a1 44 57 11 c0       	mov    0xc0115744,%eax
c010668f:	8b 15 44 57 11 c0    	mov    0xc0115744,%edx
c0106695:	8b 4d 08             	mov    0x8(%ebp),%ecx
c0106698:	83 c1 06             	add    $0x6,%ecx
c010669b:	c1 e1 04             	shl    $0x4,%ecx
c010669e:	01 ca                	add    %ecx,%edx
c01066a0:	8b 4a 10             	mov    0x10(%edx),%ecx
c01066a3:	8b 55 10             	mov    0x10(%ebp),%edx
c01066a6:	01 ca                	add    %ecx,%edx
c01066a8:	8b 4d 08             	mov    0x8(%ebp),%ecx
c01066ab:	83 c1 06             	add    $0x6,%ecx
c01066ae:	c1 e1 04             	shl    $0x4,%ecx
c01066b1:	01 c8                	add    %ecx,%eax
c01066b3:	89 50 10             	mov    %edx,0x10(%eax)
c01066b6:	8b 45 10             	mov    0x10(%ebp),%eax
c01066b9:	eb 05                	jmp    c01066c0 <fs_write+0x3e0>
c01066bb:	b8 ff ff ff ff       	mov    $0xffffffff,%eax
c01066c0:	c9                   	leave  
c01066c1:	c3                   	ret    

c01066c2 <fs_close>:
c01066c2:	55                   	push   %ebp
c01066c3:	89 e5                	mov    %esp,%ebp
c01066c5:	83 7d 08 00          	cmpl   $0x0,0x8(%ebp)
c01066c9:	78 3b                	js     c0106706 <fs_close+0x44>
c01066cb:	83 7d 08 07          	cmpl   $0x7,0x8(%ebp)
c01066cf:	7f 35                	jg     c0106706 <fs_close+0x44>
c01066d1:	a1 44 57 11 c0       	mov    0xc0115744,%eax
c01066d6:	8b 55 08             	mov    0x8(%ebp),%edx
c01066d9:	83 c2 06             	add    $0x6,%edx
c01066dc:	c1 e2 04             	shl    $0x4,%edx
c01066df:	01 d0                	add    %edx,%eax
c01066e1:	c7 40 0c 00 00 00 00 	movl   $0x0,0xc(%eax)
c01066e8:	a1 44 57 11 c0       	mov    0xc0115744,%eax
c01066ed:	8b 55 08             	mov    0x8(%ebp),%edx
c01066f0:	83 c2 06             	add    $0x6,%edx
c01066f3:	c1 e2 04             	shl    $0x4,%edx
c01066f6:	01 d0                	add    %edx,%eax
c01066f8:	c7 40 10 00 00 00 00 	movl   $0x0,0x10(%eax)
c01066ff:	b8 00 00 00 00       	mov    $0x0,%eax
c0106704:	eb 05                	jmp    c010670b <fs_close+0x49>
c0106706:	b8 ff ff ff ff       	mov    $0xffffffff,%eax
c010670b:	5d                   	pop    %ebp
c010670c:	c3                   	ret    

c010670d <fs_lseek>:
c010670d:	55                   	push   %ebp
c010670e:	89 e5                	mov    %esp,%ebp
c0106710:	83 ec 28             	sub    $0x28,%esp
c0106713:	83 7d 08 00          	cmpl   $0x0,0x8(%ebp)
c0106717:	0f 88 1e 01 00 00    	js     c010683b <fs_lseek+0x12e>
c010671d:	83 7d 08 07          	cmpl   $0x7,0x8(%ebp)
c0106721:	0f 8f 14 01 00 00    	jg     c010683b <fs_lseek+0x12e>
c0106727:	8b 45 10             	mov    0x10(%ebp),%eax
c010672a:	83 f8 01             	cmp    $0x1,%eax
c010672d:	74 0b                	je     c010673a <fs_lseek+0x2d>
c010672f:	83 f8 02             	cmp    $0x2,%eax
c0106732:	74 23                	je     c0106757 <fs_lseek+0x4a>
c0106734:	85 c0                	test   %eax,%eax
c0106736:	74 6b                	je     c01067a3 <fs_lseek+0x96>
c0106738:	eb 57                	jmp    c0106791 <fs_lseek+0x84>
c010673a:	a1 44 57 11 c0       	mov    0xc0115744,%eax
c010673f:	8b 55 08             	mov    0x8(%ebp),%edx
c0106742:	83 c2 06             	add    $0x6,%edx
c0106745:	c1 e2 04             	shl    $0x4,%edx
c0106748:	01 d0                	add    %edx,%eax
c010674a:	8b 50 10             	mov    0x10(%eax),%edx
c010674d:	8b 45 0c             	mov    0xc(%ebp),%eax
c0106750:	01 d0                	add    %edx,%eax
c0106752:	89 45 0c             	mov    %eax,0xc(%ebp)
c0106755:	eb 4d                	jmp    c01067a4 <fs_lseek+0x97>
c0106757:	a1 44 57 11 c0       	mov    0xc0115744,%eax
c010675c:	8b 55 08             	mov    0x8(%ebp),%edx
c010675f:	83 c2 06             	add    $0x6,%edx
c0106762:	c1 e2 04             	shl    $0x4,%edx
c0106765:	01 d0                	add    %edx,%eax
c0106767:	8b 50 18             	mov    0x18(%eax),%edx
c010676a:	a1 44 57 11 c0       	mov    0xc0115744,%eax
c010676f:	8b 4d 08             	mov    0x8(%ebp),%ecx
c0106772:	83 c1 06             	add    $0x6,%ecx
c0106775:	c1 e1 04             	shl    $0x4,%ecx
c0106778:	01 c8                	add    %ecx,%eax
c010677a:	8b 40 14             	mov    0x14(%eax),%eax
c010677d:	c1 e0 06             	shl    $0x6,%eax
c0106780:	83 c0 30             	add    $0x30,%eax
c0106783:	01 d0                	add    %edx,%eax
c0106785:	8b 10                	mov    (%eax),%edx
c0106787:	8b 45 0c             	mov    0xc(%ebp),%eax
c010678a:	01 d0                	add    %edx,%eax
c010678c:	89 45 0c             	mov    %eax,0xc(%ebp)
c010678f:	eb 13                	jmp    c01067a4 <fs_lseek+0x97>
c0106791:	83 ec 0c             	sub    $0xc,%esp
c0106794:	68 a8 73 10 c0       	push   $0xc01073a8
c0106799:	e8 e9 c1 ff ff       	call   c0102987 <printk>
c010679e:	83 c4 10             	add    $0x10,%esp
c01067a1:	eb fe                	jmp    c01067a1 <fs_lseek+0x94>
c01067a3:	90                   	nop
c01067a4:	a1 44 57 11 c0       	mov    0xc0115744,%eax
c01067a9:	8b 55 08             	mov    0x8(%ebp),%edx
c01067ac:	83 c2 06             	add    $0x6,%edx
c01067af:	c1 e2 04             	shl    $0x4,%edx
c01067b2:	01 d0                	add    %edx,%eax
c01067b4:	8b 50 0c             	mov    0xc(%eax),%edx
c01067b7:	89 55 e0             	mov    %edx,-0x20(%ebp)
c01067ba:	8b 50 10             	mov    0x10(%eax),%edx
c01067bd:	89 55 e4             	mov    %edx,-0x1c(%ebp)
c01067c0:	8b 50 14             	mov    0x14(%eax),%edx
c01067c3:	89 55 e8             	mov    %edx,-0x18(%ebp)
c01067c6:	8b 40 18             	mov    0x18(%eax),%eax
c01067c9:	89 45 ec             	mov    %eax,-0x14(%ebp)
c01067cc:	8b 45 e8             	mov    -0x18(%ebp),%eax
c01067cf:	89 45 f4             	mov    %eax,-0xc(%ebp)
c01067d2:	8b 45 ec             	mov    -0x14(%ebp),%eax
c01067d5:	89 45 f0             	mov    %eax,-0x10(%ebp)
c01067d8:	83 7d 0c 00          	cmpl   $0x0,0xc(%ebp)
c01067dc:	78 33                	js     c0106811 <fs_lseek+0x104>
c01067de:	8b 55 0c             	mov    0xc(%ebp),%edx
c01067e1:	8b 4d f0             	mov    -0x10(%ebp),%ecx
c01067e4:	8b 45 f4             	mov    -0xc(%ebp),%eax
c01067e7:	c1 e0 06             	shl    $0x6,%eax
c01067ea:	83 c0 30             	add    $0x30,%eax
c01067ed:	01 c8                	add    %ecx,%eax
c01067ef:	8b 00                	mov    (%eax),%eax
c01067f1:	39 c2                	cmp    %eax,%edx
c01067f3:	77 1c                	ja     c0106811 <fs_lseek+0x104>
c01067f5:	8b 15 44 57 11 c0    	mov    0xc0115744,%edx
c01067fb:	8b 45 0c             	mov    0xc(%ebp),%eax
c01067fe:	8b 4d 08             	mov    0x8(%ebp),%ecx
c0106801:	83 c1 06             	add    $0x6,%ecx
c0106804:	c1 e1 04             	shl    $0x4,%ecx
c0106807:	01 ca                	add    %ecx,%edx
c0106809:	89 42 10             	mov    %eax,0x10(%edx)
c010680c:	8b 45 0c             	mov    0xc(%ebp),%eax
c010680f:	eb 3c                	jmp    c010684d <fs_lseek+0x140>
c0106811:	83 7d 0c 00          	cmpl   $0x0,0xc(%ebp)
c0106815:	79 12                	jns    c0106829 <fs_lseek+0x11c>
c0106817:	83 ec 0c             	sub    $0xc,%esp
c010681a:	68 ad 73 10 c0       	push   $0xc01073ad
c010681f:	e8 63 c1 ff ff       	call   c0102987 <printk>
c0106824:	83 c4 10             	add    $0x10,%esp
c0106827:	eb fe                	jmp    c0106827 <fs_lseek+0x11a>
c0106829:	83 ec 0c             	sub    $0xc,%esp
c010682c:	68 b7 73 10 c0       	push   $0xc01073b7
c0106831:	e8 51 c1 ff ff       	call   c0102987 <printk>
c0106836:	83 c4 10             	add    $0x10,%esp
c0106839:	eb fe                	jmp    c0106839 <fs_lseek+0x12c>
c010683b:	83 ec 0c             	sub    $0xc,%esp
c010683e:	68 c3 73 10 c0       	push   $0xc01073c3
c0106843:	e8 3f c1 ff ff       	call   c0102987 <printk>
c0106848:	83 c4 10             	add    $0x10,%esp
c010684b:	eb fe                	jmp    c010684b <fs_lseek+0x13e>
c010684d:	c9                   	leave  
c010684e:	c3                   	ret    

c010684f <fs_rewind>:
c010684f:	55                   	push   %ebp
c0106850:	89 e5                	mov    %esp,%ebp
c0106852:	83 ec 08             	sub    $0x8,%esp
c0106855:	83 ec 04             	sub    $0x4,%esp
c0106858:	6a 00                	push   $0x0
c010685a:	6a 00                	push   $0x0
c010685c:	ff 75 08             	pushl  0x8(%ebp)
c010685f:	e8 a9 fe ff ff       	call   c010670d <fs_lseek>
c0106864:	83 c4 10             	add    $0x10,%esp
c0106867:	c9                   	leave  
c0106868:	c3                   	ret    

c0106869 <vec0>:
c0106869:	6a 00                	push   $0x0
c010686b:	6a 00                	push   $0x0
c010686d:	e9 b7 00 00 00       	jmp    c0106929 <asm_do_irq>

c0106872 <vec1>:
c0106872:	6a 00                	push   $0x0
c0106874:	6a 01                	push   $0x1
c0106876:	e9 ae 00 00 00       	jmp    c0106929 <asm_do_irq>

c010687b <vec2>:
c010687b:	6a 00                	push   $0x0
c010687d:	6a 02                	push   $0x2
c010687f:	e9 a5 00 00 00       	jmp    c0106929 <asm_do_irq>

c0106884 <vec3>:
c0106884:	6a 00                	push   $0x0
c0106886:	6a 03                	push   $0x3
c0106888:	e9 9c 00 00 00       	jmp    c0106929 <asm_do_irq>

c010688d <vec4>:
c010688d:	6a 00                	push   $0x0
c010688f:	6a 04                	push   $0x4
c0106891:	e9 93 00 00 00       	jmp    c0106929 <asm_do_irq>

c0106896 <vec5>:
c0106896:	6a 00                	push   $0x0
c0106898:	6a 05                	push   $0x5
c010689a:	e9 8a 00 00 00       	jmp    c0106929 <asm_do_irq>

c010689f <vec6>:
c010689f:	6a 00                	push   $0x0
c01068a1:	6a 06                	push   $0x6
c01068a3:	e9 81 00 00 00       	jmp    c0106929 <asm_do_irq>

c01068a8 <vec7>:
c01068a8:	6a 00                	push   $0x0
c01068aa:	6a 07                	push   $0x7
c01068ac:	e9 78 00 00 00       	jmp    c0106929 <asm_do_irq>

c01068b1 <vec8>:
c01068b1:	6a 08                	push   $0x8
c01068b3:	e9 71 00 00 00       	jmp    c0106929 <asm_do_irq>

c01068b8 <vec9>:
c01068b8:	6a 00                	push   $0x0
c01068ba:	6a 09                	push   $0x9
c01068bc:	e9 68 00 00 00       	jmp    c0106929 <asm_do_irq>

c01068c1 <vec10>:
c01068c1:	6a 0a                	push   $0xa
c01068c3:	e9 61 00 00 00       	jmp    c0106929 <asm_do_irq>

c01068c8 <vec11>:
c01068c8:	6a 0b                	push   $0xb
c01068ca:	e9 5a 00 00 00       	jmp    c0106929 <asm_do_irq>

c01068cf <vec12>:
c01068cf:	6a 0c                	push   $0xc
c01068d1:	e9 53 00 00 00       	jmp    c0106929 <asm_do_irq>

c01068d6 <vec13>:
c01068d6:	6a 0d                	push   $0xd
c01068d8:	e9 4c 00 00 00       	jmp    c0106929 <asm_do_irq>

c01068dd <vec14>:
c01068dd:	6a 0e                	push   $0xe
c01068df:	e9 45 00 00 00       	jmp    c0106929 <asm_do_irq>

c01068e4 <vecsys>:
c01068e4:	6a 00                	push   $0x0
c01068e6:	68 80 00 00 00       	push   $0x80
c01068eb:	e9 39 00 00 00       	jmp    c0106929 <asm_do_irq>

c01068f0 <vecsys2>:
c01068f0:	6a 00                	push   $0x0
c01068f2:	68 81 00 00 00       	push   $0x81
c01068f7:	e9 2d 00 00 00       	jmp    c0106929 <asm_do_irq>

c01068fc <irq0>:
c01068fc:	6a 00                	push   $0x0
c01068fe:	68 e8 03 00 00       	push   $0x3e8
c0106903:	e9 21 00 00 00       	jmp    c0106929 <asm_do_irq>

c0106908 <irq1>:
c0106908:	6a 00                	push   $0x0
c010690a:	68 e9 03 00 00       	push   $0x3e9
c010690f:	e9 15 00 00 00       	jmp    c0106929 <asm_do_irq>

c0106914 <irq14>:
c0106914:	6a 00                	push   $0x0
c0106916:	68 f6 03 00 00       	push   $0x3f6
c010691b:	e9 09 00 00 00       	jmp    c0106929 <asm_do_irq>

c0106920 <irq_empty>:
c0106920:	6a 00                	push   $0x0
c0106922:	6a ff                	push   $0xffffffff
c0106924:	e9 00 00 00 00       	jmp    c0106929 <asm_do_irq>

c0106929 <asm_do_irq>:
c0106929:	1e                   	push   %ds
c010692a:	06                   	push   %es
c010692b:	60                   	pusha  
c010692c:	54                   	push   %esp
c010692d:	e8 46 e8 ff ff       	call   c0105178 <irq_handle>
c0106932:	83 c4 04             	add    $0x4,%esp
c0106935:	61                   	popa   
c0106936:	1f                   	pop    %ds
c0106937:	07                   	pop    %es
c0106938:	83 c4 08             	add    $0x8,%esp
c010693b:	cf                   	iret   
c010693c:	02 b0 ad 1b 00 00    	add    0x1bad(%eax),%dh
c0106942:	00 00                	add    %al,(%eax)
c0106944:	fe 4f 52             	decb   0x52(%edi)
c0106947:	e4 66                	in     $0x66,%al

c0106948 <entry>:
c0106948:	66 c7 05 72 04 00 00 	movw   $0x1234,0x472
c010694f:	34 12 
c0106951:	b8 00 b0 10 00       	mov    $0x10b000,%eax
c0106956:	0f 22 d8             	mov    %eax,%cr3
c0106959:	0f 20 c0             	mov    %cr0,%eax
c010695c:	0d 01 00 01 80       	or     $0x80010001,%eax
c0106961:	0f 22 c0             	mov    %eax,%cr0
c0106964:	b8 6b 69 10 c0       	mov    $0xc010696b,%eax
c0106969:	ff e0                	jmp    *%eax

c010696b <relocated>:
c010696b:	bd 00 00 00 00       	mov    $0x0,%ebp
c0106970:	bc 00 50 11 c0       	mov    $0xc0115000,%esp
c0106975:	e8 33 d6 ff ff       	call   c0103fad <game_init>

c010697a <spin>:
c010697a:	eb fe                	jmp    c010697a <spin>
c010697c:	66 90                	xchg   %ax,%ax
c010697e:	66 90                	xchg   %ax,%ax

c0106980 <__udivdi3>:
c0106980:	55                   	push   %ebp
c0106981:	57                   	push   %edi
c0106982:	56                   	push   %esi
c0106983:	83 ec 10             	sub    $0x10,%esp
c0106986:	8b 54 24 2c          	mov    0x2c(%esp),%edx
c010698a:	8b 7c 24 20          	mov    0x20(%esp),%edi
c010698e:	8b 74 24 24          	mov    0x24(%esp),%esi
c0106992:	8b 4c 24 28          	mov    0x28(%esp),%ecx
c0106996:	85 d2                	test   %edx,%edx
c0106998:	89 7c 24 04          	mov    %edi,0x4(%esp)
c010699c:	89 34 24             	mov    %esi,(%esp)
c010699f:	89 c8                	mov    %ecx,%eax
c01069a1:	75 35                	jne    c01069d8 <__udivdi3+0x58>
c01069a3:	39 f1                	cmp    %esi,%ecx
c01069a5:	0f 87 bd 00 00 00    	ja     c0106a68 <__udivdi3+0xe8>
c01069ab:	85 c9                	test   %ecx,%ecx
c01069ad:	89 cd                	mov    %ecx,%ebp
c01069af:	75 0b                	jne    c01069bc <__udivdi3+0x3c>
c01069b1:	b8 01 00 00 00       	mov    $0x1,%eax
c01069b6:	31 d2                	xor    %edx,%edx
c01069b8:	f7 f1                	div    %ecx
c01069ba:	89 c5                	mov    %eax,%ebp
c01069bc:	89 f0                	mov    %esi,%eax
c01069be:	31 d2                	xor    %edx,%edx
c01069c0:	f7 f5                	div    %ebp
c01069c2:	89 c6                	mov    %eax,%esi
c01069c4:	89 f8                	mov    %edi,%eax
c01069c6:	f7 f5                	div    %ebp
c01069c8:	89 f2                	mov    %esi,%edx
c01069ca:	83 c4 10             	add    $0x10,%esp
c01069cd:	5e                   	pop    %esi
c01069ce:	5f                   	pop    %edi
c01069cf:	5d                   	pop    %ebp
c01069d0:	c3                   	ret    
c01069d1:	8d b4 26 00 00 00 00 	lea    0x0(%esi,%eiz,1),%esi
c01069d8:	3b 14 24             	cmp    (%esp),%edx
c01069db:	77 7b                	ja     c0106a58 <__udivdi3+0xd8>
c01069dd:	0f bd f2             	bsr    %edx,%esi
c01069e0:	83 f6 1f             	xor    $0x1f,%esi
c01069e3:	0f 84 97 00 00 00    	je     c0106a80 <__udivdi3+0x100>
c01069e9:	bd 20 00 00 00       	mov    $0x20,%ebp
c01069ee:	89 d7                	mov    %edx,%edi
c01069f0:	89 f1                	mov    %esi,%ecx
c01069f2:	29 f5                	sub    %esi,%ebp
c01069f4:	d3 e7                	shl    %cl,%edi
c01069f6:	89 c2                	mov    %eax,%edx
c01069f8:	89 e9                	mov    %ebp,%ecx
c01069fa:	d3 ea                	shr    %cl,%edx
c01069fc:	89 f1                	mov    %esi,%ecx
c01069fe:	09 fa                	or     %edi,%edx
c0106a00:	8b 3c 24             	mov    (%esp),%edi
c0106a03:	d3 e0                	shl    %cl,%eax
c0106a05:	89 54 24 08          	mov    %edx,0x8(%esp)
c0106a09:	89 e9                	mov    %ebp,%ecx
c0106a0b:	89 44 24 0c          	mov    %eax,0xc(%esp)
c0106a0f:	8b 44 24 04          	mov    0x4(%esp),%eax
c0106a13:	89 fa                	mov    %edi,%edx
c0106a15:	d3 ea                	shr    %cl,%edx
c0106a17:	89 f1                	mov    %esi,%ecx
c0106a19:	d3 e7                	shl    %cl,%edi
c0106a1b:	89 e9                	mov    %ebp,%ecx
c0106a1d:	d3 e8                	shr    %cl,%eax
c0106a1f:	09 c7                	or     %eax,%edi
c0106a21:	89 f8                	mov    %edi,%eax
c0106a23:	f7 74 24 08          	divl   0x8(%esp)
c0106a27:	89 d5                	mov    %edx,%ebp
c0106a29:	89 c7                	mov    %eax,%edi
c0106a2b:	f7 64 24 0c          	mull   0xc(%esp)
c0106a2f:	39 d5                	cmp    %edx,%ebp
c0106a31:	89 14 24             	mov    %edx,(%esp)
c0106a34:	72 11                	jb     c0106a47 <__udivdi3+0xc7>
c0106a36:	8b 54 24 04          	mov    0x4(%esp),%edx
c0106a3a:	89 f1                	mov    %esi,%ecx
c0106a3c:	d3 e2                	shl    %cl,%edx
c0106a3e:	39 c2                	cmp    %eax,%edx
c0106a40:	73 5e                	jae    c0106aa0 <__udivdi3+0x120>
c0106a42:	3b 2c 24             	cmp    (%esp),%ebp
c0106a45:	75 59                	jne    c0106aa0 <__udivdi3+0x120>
c0106a47:	8d 47 ff             	lea    -0x1(%edi),%eax
c0106a4a:	31 f6                	xor    %esi,%esi
c0106a4c:	89 f2                	mov    %esi,%edx
c0106a4e:	83 c4 10             	add    $0x10,%esp
c0106a51:	5e                   	pop    %esi
c0106a52:	5f                   	pop    %edi
c0106a53:	5d                   	pop    %ebp
c0106a54:	c3                   	ret    
c0106a55:	8d 76 00             	lea    0x0(%esi),%esi
c0106a58:	31 f6                	xor    %esi,%esi
c0106a5a:	31 c0                	xor    %eax,%eax
c0106a5c:	89 f2                	mov    %esi,%edx
c0106a5e:	83 c4 10             	add    $0x10,%esp
c0106a61:	5e                   	pop    %esi
c0106a62:	5f                   	pop    %edi
c0106a63:	5d                   	pop    %ebp
c0106a64:	c3                   	ret    
c0106a65:	8d 76 00             	lea    0x0(%esi),%esi
c0106a68:	89 f2                	mov    %esi,%edx
c0106a6a:	31 f6                	xor    %esi,%esi
c0106a6c:	89 f8                	mov    %edi,%eax
c0106a6e:	f7 f1                	div    %ecx
c0106a70:	89 f2                	mov    %esi,%edx
c0106a72:	83 c4 10             	add    $0x10,%esp
c0106a75:	5e                   	pop    %esi
c0106a76:	5f                   	pop    %edi
c0106a77:	5d                   	pop    %ebp
c0106a78:	c3                   	ret    
c0106a79:	8d b4 26 00 00 00 00 	lea    0x0(%esi,%eiz,1),%esi
c0106a80:	3b 4c 24 04          	cmp    0x4(%esp),%ecx
c0106a84:	76 0b                	jbe    c0106a91 <__udivdi3+0x111>
c0106a86:	31 c0                	xor    %eax,%eax
c0106a88:	3b 14 24             	cmp    (%esp),%edx
c0106a8b:	0f 83 37 ff ff ff    	jae    c01069c8 <__udivdi3+0x48>
c0106a91:	b8 01 00 00 00       	mov    $0x1,%eax
c0106a96:	e9 2d ff ff ff       	jmp    c01069c8 <__udivdi3+0x48>
c0106a9b:	90                   	nop
c0106a9c:	8d 74 26 00          	lea    0x0(%esi,%eiz,1),%esi
c0106aa0:	89 f8                	mov    %edi,%eax
c0106aa2:	31 f6                	xor    %esi,%esi
c0106aa4:	e9 1f ff ff ff       	jmp    c01069c8 <__udivdi3+0x48>
c0106aa9:	66 90                	xchg   %ax,%ax
c0106aab:	66 90                	xchg   %ax,%ax
c0106aad:	66 90                	xchg   %ax,%ax
c0106aaf:	90                   	nop

c0106ab0 <__umoddi3>:
c0106ab0:	55                   	push   %ebp
c0106ab1:	57                   	push   %edi
c0106ab2:	56                   	push   %esi
c0106ab3:	83 ec 20             	sub    $0x20,%esp
c0106ab6:	8b 44 24 34          	mov    0x34(%esp),%eax
c0106aba:	8b 4c 24 30          	mov    0x30(%esp),%ecx
c0106abe:	8b 7c 24 38          	mov    0x38(%esp),%edi
c0106ac2:	89 c6                	mov    %eax,%esi
c0106ac4:	89 44 24 10          	mov    %eax,0x10(%esp)
c0106ac8:	8b 44 24 3c          	mov    0x3c(%esp),%eax
c0106acc:	89 4c 24 1c          	mov    %ecx,0x1c(%esp)
c0106ad0:	89 7c 24 0c          	mov    %edi,0xc(%esp)
c0106ad4:	89 4c 24 14          	mov    %ecx,0x14(%esp)
c0106ad8:	89 74 24 18          	mov    %esi,0x18(%esp)
c0106adc:	85 c0                	test   %eax,%eax
c0106ade:	89 c2                	mov    %eax,%edx
c0106ae0:	75 1e                	jne    c0106b00 <__umoddi3+0x50>
c0106ae2:	39 f7                	cmp    %esi,%edi
c0106ae4:	76 52                	jbe    c0106b38 <__umoddi3+0x88>
c0106ae6:	89 c8                	mov    %ecx,%eax
c0106ae8:	89 f2                	mov    %esi,%edx
c0106aea:	f7 f7                	div    %edi
c0106aec:	89 d0                	mov    %edx,%eax
c0106aee:	31 d2                	xor    %edx,%edx
c0106af0:	83 c4 20             	add    $0x20,%esp
c0106af3:	5e                   	pop    %esi
c0106af4:	5f                   	pop    %edi
c0106af5:	5d                   	pop    %ebp
c0106af6:	c3                   	ret    
c0106af7:	89 f6                	mov    %esi,%esi
c0106af9:	8d bc 27 00 00 00 00 	lea    0x0(%edi,%eiz,1),%edi
c0106b00:	39 f0                	cmp    %esi,%eax
c0106b02:	77 5c                	ja     c0106b60 <__umoddi3+0xb0>
c0106b04:	0f bd e8             	bsr    %eax,%ebp
c0106b07:	83 f5 1f             	xor    $0x1f,%ebp
c0106b0a:	75 64                	jne    c0106b70 <__umoddi3+0xc0>
c0106b0c:	8b 6c 24 14          	mov    0x14(%esp),%ebp
c0106b10:	39 6c 24 0c          	cmp    %ebp,0xc(%esp)
c0106b14:	0f 86 f6 00 00 00    	jbe    c0106c10 <__umoddi3+0x160>
c0106b1a:	3b 44 24 18          	cmp    0x18(%esp),%eax
c0106b1e:	0f 82 ec 00 00 00    	jb     c0106c10 <__umoddi3+0x160>
c0106b24:	8b 44 24 14          	mov    0x14(%esp),%eax
c0106b28:	8b 54 24 18          	mov    0x18(%esp),%edx
c0106b2c:	83 c4 20             	add    $0x20,%esp
c0106b2f:	5e                   	pop    %esi
c0106b30:	5f                   	pop    %edi
c0106b31:	5d                   	pop    %ebp
c0106b32:	c3                   	ret    
c0106b33:	90                   	nop
c0106b34:	8d 74 26 00          	lea    0x0(%esi,%eiz,1),%esi
c0106b38:	85 ff                	test   %edi,%edi
c0106b3a:	89 fd                	mov    %edi,%ebp
c0106b3c:	75 0b                	jne    c0106b49 <__umoddi3+0x99>
c0106b3e:	b8 01 00 00 00       	mov    $0x1,%eax
c0106b43:	31 d2                	xor    %edx,%edx
c0106b45:	f7 f7                	div    %edi
c0106b47:	89 c5                	mov    %eax,%ebp
c0106b49:	8b 44 24 10          	mov    0x10(%esp),%eax
c0106b4d:	31 d2                	xor    %edx,%edx
c0106b4f:	f7 f5                	div    %ebp
c0106b51:	89 c8                	mov    %ecx,%eax
c0106b53:	f7 f5                	div    %ebp
c0106b55:	eb 95                	jmp    c0106aec <__umoddi3+0x3c>
c0106b57:	89 f6                	mov    %esi,%esi
c0106b59:	8d bc 27 00 00 00 00 	lea    0x0(%edi,%eiz,1),%edi
c0106b60:	89 c8                	mov    %ecx,%eax
c0106b62:	89 f2                	mov    %esi,%edx
c0106b64:	83 c4 20             	add    $0x20,%esp
c0106b67:	5e                   	pop    %esi
c0106b68:	5f                   	pop    %edi
c0106b69:	5d                   	pop    %ebp
c0106b6a:	c3                   	ret    
c0106b6b:	90                   	nop
c0106b6c:	8d 74 26 00          	lea    0x0(%esi,%eiz,1),%esi
c0106b70:	b8 20 00 00 00       	mov    $0x20,%eax
c0106b75:	89 e9                	mov    %ebp,%ecx
c0106b77:	29 e8                	sub    %ebp,%eax
c0106b79:	d3 e2                	shl    %cl,%edx
c0106b7b:	89 c7                	mov    %eax,%edi
c0106b7d:	89 44 24 18          	mov    %eax,0x18(%esp)
c0106b81:	8b 44 24 0c          	mov    0xc(%esp),%eax
c0106b85:	89 f9                	mov    %edi,%ecx
c0106b87:	d3 e8                	shr    %cl,%eax
c0106b89:	89 c1                	mov    %eax,%ecx
c0106b8b:	8b 44 24 0c          	mov    0xc(%esp),%eax
c0106b8f:	09 d1                	or     %edx,%ecx
c0106b91:	89 fa                	mov    %edi,%edx
c0106b93:	89 4c 24 10          	mov    %ecx,0x10(%esp)
c0106b97:	89 e9                	mov    %ebp,%ecx
c0106b99:	d3 e0                	shl    %cl,%eax
c0106b9b:	89 f9                	mov    %edi,%ecx
c0106b9d:	89 44 24 0c          	mov    %eax,0xc(%esp)
c0106ba1:	89 f0                	mov    %esi,%eax
c0106ba3:	d3 e8                	shr    %cl,%eax
c0106ba5:	89 e9                	mov    %ebp,%ecx
c0106ba7:	89 c7                	mov    %eax,%edi
c0106ba9:	8b 44 24 1c          	mov    0x1c(%esp),%eax
c0106bad:	d3 e6                	shl    %cl,%esi
c0106baf:	89 d1                	mov    %edx,%ecx
c0106bb1:	89 fa                	mov    %edi,%edx
c0106bb3:	d3 e8                	shr    %cl,%eax
c0106bb5:	89 e9                	mov    %ebp,%ecx
c0106bb7:	09 f0                	or     %esi,%eax
c0106bb9:	8b 74 24 1c          	mov    0x1c(%esp),%esi
c0106bbd:	f7 74 24 10          	divl   0x10(%esp)
c0106bc1:	d3 e6                	shl    %cl,%esi
c0106bc3:	89 d1                	mov    %edx,%ecx
c0106bc5:	f7 64 24 0c          	mull   0xc(%esp)
c0106bc9:	39 d1                	cmp    %edx,%ecx
c0106bcb:	89 74 24 14          	mov    %esi,0x14(%esp)
c0106bcf:	89 d7                	mov    %edx,%edi
c0106bd1:	89 c6                	mov    %eax,%esi
c0106bd3:	72 0a                	jb     c0106bdf <__umoddi3+0x12f>
c0106bd5:	39 44 24 14          	cmp    %eax,0x14(%esp)
c0106bd9:	73 10                	jae    c0106beb <__umoddi3+0x13b>
c0106bdb:	39 d1                	cmp    %edx,%ecx
c0106bdd:	75 0c                	jne    c0106beb <__umoddi3+0x13b>
c0106bdf:	89 d7                	mov    %edx,%edi
c0106be1:	89 c6                	mov    %eax,%esi
c0106be3:	2b 74 24 0c          	sub    0xc(%esp),%esi
c0106be7:	1b 7c 24 10          	sbb    0x10(%esp),%edi
c0106beb:	89 ca                	mov    %ecx,%edx
c0106bed:	89 e9                	mov    %ebp,%ecx
c0106bef:	8b 44 24 14          	mov    0x14(%esp),%eax
c0106bf3:	29 f0                	sub    %esi,%eax
c0106bf5:	19 fa                	sbb    %edi,%edx
c0106bf7:	d3 e8                	shr    %cl,%eax
c0106bf9:	0f b6 4c 24 18       	movzbl 0x18(%esp),%ecx
c0106bfe:	89 d7                	mov    %edx,%edi
c0106c00:	d3 e7                	shl    %cl,%edi
c0106c02:	89 e9                	mov    %ebp,%ecx
c0106c04:	09 f8                	or     %edi,%eax
c0106c06:	d3 ea                	shr    %cl,%edx
c0106c08:	83 c4 20             	add    $0x20,%esp
c0106c0b:	5e                   	pop    %esi
c0106c0c:	5f                   	pop    %edi
c0106c0d:	5d                   	pop    %ebp
c0106c0e:	c3                   	ret    
c0106c0f:	90                   	nop
c0106c10:	8b 74 24 10          	mov    0x10(%esp),%esi
c0106c14:	29 f9                	sub    %edi,%ecx
c0106c16:	19 c6                	sbb    %eax,%esi
c0106c18:	89 4c 24 14          	mov    %ecx,0x14(%esp)
c0106c1c:	89 74 24 18          	mov    %esi,0x18(%esp)
c0106c20:	e9 ff fe ff ff       	jmp    c0106b24 <__umoddi3+0x74>
